
project4.elf:     file format elf32-avr

Sections:
Idx Name          Size      VMA       LMA       File off  Algn
  0 .text         0000150c  00000000  00000000  00000094  2**1
                  CONTENTS, ALLOC, LOAD, READONLY, CODE
  1 .data         00000024  00800060  0000150c  000015a0  2**0
                  CONTENTS, ALLOC, LOAD, DATA
  2 .bss          00000006  00800084  00800084  000015c4  2**0
                  ALLOC
  3 .comment      0000005c  00000000  00000000  000015c4  2**0
                  CONTENTS, READONLY
  4 .note.gnu.avr.deviceinfo 0000003c  00000000  00000000  00001620  2**2
                  CONTENTS, READONLY
  5 .debug_aranges 00000158  00000000  00000000  0000165c  2**0
                  CONTENTS, READONLY, DEBUGGING
  6 .debug_info   000013fd  00000000  00000000  000017b4  2**0
                  CONTENTS, READONLY, DEBUGGING
  7 .debug_abbrev 00000a0d  00000000  00000000  00002bb1  2**0
                  CONTENTS, READONLY, DEBUGGING
  8 .debug_line   00000957  00000000  00000000  000035be  2**0
                  CONTENTS, READONLY, DEBUGGING
  9 .debug_frame  00000304  00000000  00000000  00003f18  2**2
                  CONTENTS, READONLY, DEBUGGING
 10 .debug_str    00000522  00000000  00000000  0000421c  2**0
                  CONTENTS, READONLY, DEBUGGING
 11 .debug_loc    000009e0  00000000  00000000  0000473e  2**0
                  CONTENTS, READONLY, DEBUGGING
 12 .debug_ranges 00000108  00000000  00000000  0000511e  2**0
                  CONTENTS, READONLY, DEBUGGING

Disassembly of section .text:

00000000 <__vectors>:
       0:	0c 94 ab 00 	jmp	0x156	; 0x156 <__ctors_end>
       4:	0c 94 c8 00 	jmp	0x190	; 0x190 <__bad_interrupt>
       8:	0c 94 c8 00 	jmp	0x190	; 0x190 <__bad_interrupt>
       c:	0c 94 c8 00 	jmp	0x190	; 0x190 <__bad_interrupt>
      10:	0c 94 c8 00 	jmp	0x190	; 0x190 <__bad_interrupt>
      14:	0c 94 c8 00 	jmp	0x190	; 0x190 <__bad_interrupt>
      18:	0c 94 c8 00 	jmp	0x190	; 0x190 <__bad_interrupt>
      1c:	0c 94 c8 00 	jmp	0x190	; 0x190 <__bad_interrupt>
      20:	0c 94 c8 00 	jmp	0x190	; 0x190 <__bad_interrupt>
      24:	0c 94 c8 00 	jmp	0x190	; 0x190 <__bad_interrupt>
      28:	0c 94 c8 00 	jmp	0x190	; 0x190 <__bad_interrupt>
      2c:	0c 94 c8 00 	jmp	0x190	; 0x190 <__bad_interrupt>
      30:	0c 94 c8 00 	jmp	0x190	; 0x190 <__bad_interrupt>
      34:	0c 94 c8 00 	jmp	0x190	; 0x190 <__bad_interrupt>
      38:	0c 94 c8 00 	jmp	0x190	; 0x190 <__bad_interrupt>
      3c:	0c 94 c8 00 	jmp	0x190	; 0x190 <__bad_interrupt>
      40:	0c 94 c8 00 	jmp	0x190	; 0x190 <__bad_interrupt>
      44:	0c 94 c8 00 	jmp	0x190	; 0x190 <__bad_interrupt>
      48:	0c 94 c8 00 	jmp	0x190	; 0x190 <__bad_interrupt>
      4c:	0c 94 c8 00 	jmp	0x190	; 0x190 <__bad_interrupt>
      50:	0c 94 c8 00 	jmp	0x190	; 0x190 <__bad_interrupt>

00000054 <__trampolines_end>:
      54:	6e 61       	ori	r22, 0x1E	; 30
      56:	6e 00       	.word	0x006e	; ????

00000058 <__c.2332>:
      58:	69 6e 66 00 00 40 7a 10 f3 5a 00 a0 72 4e 18 09     inf..@z..Z..rN..
      68:	00 10 a5 d4 e8 00 00 e8 76 48 17 00 00 e4 0b 54     ........vH.....T
      78:	02 00 00 ca 9a 3b 00 00 00 e1 f5 05 00 00 80 96     .....;..........
      88:	98 00 00 00 40 42 0f 00 00 00 a0 86 01 00 00 00     ....@B..........
      98:	10 27 00 00 00 00 e8 03 00 00 00 00 64 00 00 00     .'..........d...
      a8:	00 00 0a 00 00 00 00 00 01 00 00 00 00 00 2c 76     ..............,v
      b8:	d8 88 dc 67 4f 08 23 df c1 df ae 59 e1 b1 b7 96     ...gO.#....Y....
      c8:	e5 e3 e4 53 c6 3a e6 51 99 76 96 e8 e6 c2 84 26     ...S.:.Q.v.....&
      d8:	eb 89 8c 9b 62 ed 40 7c 6f fc ef bc 9c 9f 40 f2     ....b.@|o.....@.
      e8:	ba a5 6f a5 f4 90 05 5a 2a f7 5c 93 6b 6c f9 67     ..o....Z*.\.kl.g
      f8:	6d c1 1b fc e0 e4 0d 47 fe f5 20 e6 b5 00 d0 ed     m......G.. .....
     108:	90 2e 03 00 94 35 77 05 00 80 84 1e 08 00 00 20     .....5w........ 
     118:	4e 0a 00 00 00 c8 0c 33 33 33 33 0f 98 6e 12 83     N......3333..n..
     128:	11 41 ef 8d 21 14 89 3b e6 55 16 cf fe e6 db 18     .A..!..;.U......
     138:	d1 84 4b 38 1b f7 7c 1d 90 1d a4 bb e4 24 20 32     ..K8..|......$ 2
     148:	84 72 5e 22 81 00 c9 f1 24 ec a1 e5 3d 27           .r^"....$...='

00000156 <__ctors_end>:
     156:	11 24       	eor	r1, r1
     158:	1f be       	out	0x3f, r1	; 63
     15a:	cf e5       	ldi	r28, 0x5F	; 95
     15c:	d8 e0       	ldi	r29, 0x08	; 8
     15e:	de bf       	out	0x3e, r29	; 62
     160:	cd bf       	out	0x3d, r28	; 61

00000162 <__do_copy_data>:
     162:	10 e0       	ldi	r17, 0x00	; 0
     164:	a0 e6       	ldi	r26, 0x60	; 96
     166:	b0 e0       	ldi	r27, 0x00	; 0
     168:	ec e0       	ldi	r30, 0x0C	; 12
     16a:	f5 e1       	ldi	r31, 0x15	; 21
     16c:	02 c0       	rjmp	.+4      	; 0x172 <__do_copy_data+0x10>
     16e:	05 90       	lpm	r0, Z+
     170:	0d 92       	st	X+, r0
     172:	a4 38       	cpi	r26, 0x84	; 132
     174:	b1 07       	cpc	r27, r17
     176:	d9 f7       	brne	.-10     	; 0x16e <__do_copy_data+0xc>

00000178 <__do_clear_bss>:
     178:	20 e0       	ldi	r18, 0x00	; 0
     17a:	a4 e8       	ldi	r26, 0x84	; 132
     17c:	b0 e0       	ldi	r27, 0x00	; 0
     17e:	01 c0       	rjmp	.+2      	; 0x182 <.do_clear_bss_start>

00000180 <.do_clear_bss_loop>:
     180:	1d 92       	st	X+, r1

00000182 <.do_clear_bss_start>:
     182:	aa 38       	cpi	r26, 0x8A	; 138
     184:	b2 07       	cpc	r27, r18
     186:	e1 f7       	brne	.-8      	; 0x180 <.do_clear_bss_loop>
     188:	0e 94 6d 02 	call	0x4da	; 0x4da <main>
     18c:	0c 94 84 0a 	jmp	0x1508	; 0x1508 <_exit>

00000190 <__bad_interrupt>:
     190:	0c 94 00 00 	jmp	0	; 0x0 <__vectors>

00000194 <avr_wait>:
     194:	9c 01       	movw	r18, r24
     196:	83 e0       	ldi	r24, 0x03	; 3
     198:	83 bf       	out	0x33, r24	; 51
     19a:	83 e8       	ldi	r24, 0x83	; 131
     19c:	07 c0       	rjmp	.+14     	; 0x1ac <avr_wait+0x18>
     19e:	82 bf       	out	0x32, r24	; 50
     1a0:	98 b7       	in	r25, 0x38	; 56
     1a2:	91 60       	ori	r25, 0x01	; 1
     1a4:	98 bf       	out	0x38, r25	; 56
     1a6:	08 b6       	in	r0, 0x38	; 56
     1a8:	00 fe       	sbrs	r0, 0
     1aa:	fd cf       	rjmp	.-6      	; 0x1a6 <avr_wait+0x12>
     1ac:	21 50       	subi	r18, 0x01	; 1
     1ae:	31 09       	sbc	r19, r1
     1b0:	b0 f7       	brcc	.-20     	; 0x19e <avr_wait+0xa>
     1b2:	13 be       	out	0x33, r1	; 51
     1b4:	08 95       	ret

000001b6 <bmp280_verify>:
	bmp280_get_coefficents();
	bmp280_set_config();
	return 1;
}

int bmp280_verify(){
     1b6:	cf 93       	push	r28
static signed short dig_T2;
static signed short dig_T3;

static unsigned char get_chip_id(){
	unsigned char temp;
	twi_start();
     1b8:	0e 94 99 02 	call	0x532	; 0x532 <twi_start>
	twi_write_addr_w(BMP_ADDR_W);
     1bc:	8e ee       	ldi	r24, 0xEE	; 238
     1be:	0e 94 9f 02 	call	0x53e	; 0x53e <twi_write_addr_w>
	twi_write_byte(CHIP_ID_REG);
     1c2:	80 ed       	ldi	r24, 0xD0	; 208
     1c4:	0e 94 a6 02 	call	0x54c	; 0x54c <twi_write_byte>
	twi_start();
     1c8:	0e 94 99 02 	call	0x532	; 0x532 <twi_start>
	twi_write_addr_r(BMP_ADDR_R);
     1cc:	8f ee       	ldi	r24, 0xEF	; 239
     1ce:	0e 94 ad 02 	call	0x55a	; 0x55a <twi_write_addr_r>
	temp = twi_read_last_byte();
     1d2:	0e 94 bb 02 	call	0x576	; 0x576 <twi_read_last_byte>
     1d6:	c8 2f       	mov	r28, r24
	twi_stop();
     1d8:	0e 94 c2 02 	call	0x584	; 0x584 <twi_stop>
     1dc:	81 e0       	ldi	r24, 0x01	; 1
     1de:	90 e0       	ldi	r25, 0x00	; 0
     1e0:	c8 35       	cpi	r28, 0x58	; 88
     1e2:	11 f0       	breq	.+4      	; 0x1e8 <bmp280_verify+0x32>
     1e4:	80 e0       	ldi	r24, 0x00	; 0
     1e6:	90 e0       	ldi	r25, 0x00	; 0
int bmp280_verify(){
	if(get_chip_id() == ACTUAL_CHIP_ID){
		return 1;
	}
	return 0;
}
     1e8:	cf 91       	pop	r28
     1ea:	08 95       	ret

000001ec <bmp280_get_coefficents>:

void bmp280_get_coefficents(){
	dig_T1 = twi_read16(dig_T1_REG, BMP_ADDR_W, BMP_ADDR_R);
     1ec:	4f ee       	ldi	r20, 0xEF	; 239
     1ee:	6e ee       	ldi	r22, 0xEE	; 238
     1f0:	88 e8       	ldi	r24, 0x88	; 136
     1f2:	0e 94 c5 02 	call	0x58a	; 0x58a <twi_read16>
     1f6:	90 93 89 00 	sts	0x0089, r25	; 0x800089 <dig_T1+0x1>
     1fa:	80 93 88 00 	sts	0x0088, r24	; 0x800088 <dig_T1>
	dig_T2 = (signed short)twi_read16(dig_T2_REG, BMP_ADDR_W, BMP_ADDR_R);
     1fe:	4f ee       	ldi	r20, 0xEF	; 239
     200:	6e ee       	ldi	r22, 0xEE	; 238
     202:	8a e8       	ldi	r24, 0x8A	; 138
     204:	0e 94 c5 02 	call	0x58a	; 0x58a <twi_read16>
     208:	90 93 87 00 	sts	0x0087, r25	; 0x800087 <dig_T2+0x1>
     20c:	80 93 86 00 	sts	0x0086, r24	; 0x800086 <dig_T2>
	dig_T3 = (signed short)twi_read16(dig_T3_REG, BMP_ADDR_W, BMP_ADDR_R);
     210:	4f ee       	ldi	r20, 0xEF	; 239
     212:	6e ee       	ldi	r22, 0xEE	; 238
     214:	8c e8       	ldi	r24, 0x8C	; 140
     216:	0e 94 c5 02 	call	0x58a	; 0x58a <twi_read16>
     21a:	90 93 85 00 	sts	0x0085, r25	; 0x800085 <__data_end+0x1>
     21e:	80 93 84 00 	sts	0x0084, r24	; 0x800084 <__data_end>
     222:	08 95       	ret

00000224 <bmp280_set_config>:
}

void bmp280_set_config(){
	twi_start();
     224:	0e 94 99 02 	call	0x532	; 0x532 <twi_start>
	twi_write_addr_w(BMP_ADDR_W);
     228:	8e ee       	ldi	r24, 0xEE	; 238
     22a:	0e 94 9f 02 	call	0x53e	; 0x53e <twi_write_addr_w>
	twi_write_byte(CONFIG_REG);
     22e:	84 ef       	ldi	r24, 0xF4	; 244
     230:	0e 94 a6 02 	call	0x54c	; 0x54c <twi_write_byte>
	twi_write_byte(CONFIG_SETTINGS);
     234:	83 e9       	ldi	r24, 0x93	; 147
     236:	0e 94 a6 02 	call	0x54c	; 0x54c <twi_write_byte>
	twi_stop();
     23a:	0e 94 c2 02 	call	0x584	; 0x584 <twi_stop>
     23e:	08 95       	ret

00000240 <bmp280_init>:
	twi_stop();
	return temp;
}

int bmp280_init(){
	if(!bmp280_verify()){
     240:	0e 94 db 00 	call	0x1b6	; 0x1b6 <bmp280_verify>
     244:	00 97       	sbiw	r24, 0x00	; 0
     246:	31 f0       	breq	.+12     	; 0x254 <bmp280_init+0x14>
		return 0;
	}
	bmp280_get_coefficents();
     248:	0e 94 f6 00 	call	0x1ec	; 0x1ec <bmp280_get_coefficents>
	bmp280_set_config();
     24c:	0e 94 12 01 	call	0x224	; 0x224 <bmp280_set_config>
	return 1;
     250:	81 e0       	ldi	r24, 0x01	; 1
     252:	90 e0       	ldi	r25, 0x00	; 0
}
     254:	08 95       	ret

00000256 <bmp280_calc_temp>:
	twi_write_byte(CONFIG_REG);
	twi_write_byte(CONFIG_SETTINGS);
	twi_stop();
}

float bmp280_calc_temp(){
     256:	8f 92       	push	r8
     258:	9f 92       	push	r9
     25a:	af 92       	push	r10
     25c:	bf 92       	push	r11
     25e:	cf 92       	push	r12
     260:	df 92       	push	r13
     262:	ef 92       	push	r14
     264:	ff 92       	push	r15
     266:	0f 93       	push	r16
     268:	1f 93       	push	r17
	int32_t adc_T, var1, var2, temp;
	adc_T = twi_read24REV(TEMP_REG, BMP_ADDR_W, BMP_ADDR_R); //[BYTE][BYTE]XXXX[][][][]
     26a:	4f ee       	ldi	r20, 0xEF	; 239
     26c:	6e ee       	ldi	r22, 0xEE	; 238
     26e:	8a ef       	ldi	r24, 0xFA	; 250
     270:	0e 94 e7 02 	call	0x5ce	; 0x5ce <twi_read24REV>
	adc_T >>= 4; //Get rid of the 4 empty bits at end ^(here)
	//Calculation arithrmetic found in datasheet.
	var1 = ((((adc_T>>3) - ((int32_t)dig_T1<<1))) * ((int32_t)dig_T2)) >> 11;
     274:	00 91 88 00 	lds	r16, 0x0088	; 0x800088 <dig_T1>
     278:	10 91 89 00 	lds	r17, 0x0089	; 0x800089 <dig_T1+0x1>
     27c:	20 e0       	ldi	r18, 0x00	; 0
     27e:	30 e0       	ldi	r19, 0x00	; 0
	var2 = (((((adc_T>>4) - ((int32_t)dig_T1)) * ((adc_T>>4) - ((int32_t)dig_T1))) >> 12) *
     280:	c7 2e       	mov	r12, r23
     282:	d8 2e       	mov	r13, r24
     284:	e9 2e       	mov	r14, r25
     286:	ff 24       	eor	r15, r15
     288:	e7 fc       	sbrc	r14, 7
     28a:	fa 94       	dec	r15
     28c:	c0 1a       	sub	r12, r16
     28e:	d1 0a       	sbc	r13, r17
     290:	e2 0a       	sbc	r14, r18
     292:	f3 0a       	sbc	r15, r19
	((int32_t)dig_T3)) >> 14;
	temp = ((var1 + var2) * 5 + 128) >> 8;
	return temp/100.0;
     294:	dc 01       	movw	r26, r24
     296:	cb 01       	movw	r24, r22
     298:	68 94       	set
     29a:	16 f8       	bld	r1, 6
     29c:	b5 95       	asr	r27
     29e:	a7 95       	ror	r26
     2a0:	97 95       	ror	r25
     2a2:	87 95       	ror	r24
     2a4:	16 94       	lsr	r1
     2a6:	d1 f7       	brne	.-12     	; 0x29c <bmp280_calc_temp+0x46>
     2a8:	00 0f       	add	r16, r16
     2aa:	11 1f       	adc	r17, r17
     2ac:	22 1f       	adc	r18, r18
     2ae:	33 1f       	adc	r19, r19
     2b0:	4c 01       	movw	r8, r24
     2b2:	5d 01       	movw	r10, r26
     2b4:	80 1a       	sub	r8, r16
     2b6:	91 0a       	sbc	r9, r17
     2b8:	a2 0a       	sbc	r10, r18
     2ba:	b3 0a       	sbc	r11, r19
     2bc:	a5 01       	movw	r20, r10
     2be:	94 01       	movw	r18, r8
     2c0:	a0 91 86 00 	lds	r26, 0x0086	; 0x800086 <dig_T2>
     2c4:	b0 91 87 00 	lds	r27, 0x0087	; 0x800087 <dig_T2+0x1>
     2c8:	0e 94 8c 08 	call	0x1118	; 0x1118 <__mulshisi3>
     2cc:	4b 01       	movw	r8, r22
     2ce:	5c 01       	movw	r10, r24
     2d0:	07 2e       	mov	r0, r23
     2d2:	7b e0       	ldi	r23, 0x0B	; 11
     2d4:	b5 94       	asr	r11
     2d6:	a7 94       	ror	r10
     2d8:	97 94       	ror	r9
     2da:	87 94       	ror	r8
     2dc:	7a 95       	dec	r23
     2de:	d1 f7       	brne	.-12     	; 0x2d4 <bmp280_calc_temp+0x7e>
     2e0:	70 2d       	mov	r23, r0
     2e2:	a7 01       	movw	r20, r14
     2e4:	96 01       	movw	r18, r12
     2e6:	c7 01       	movw	r24, r14
     2e8:	b6 01       	movw	r22, r12
     2ea:	0e 94 71 08 	call	0x10e2	; 0x10e2 <__mulsi3>
     2ee:	9b 01       	movw	r18, r22
     2f0:	ac 01       	movw	r20, r24
     2f2:	01 2e       	mov	r0, r17
     2f4:	1c e0       	ldi	r17, 0x0C	; 12
     2f6:	55 95       	asr	r21
     2f8:	47 95       	ror	r20
     2fa:	37 95       	ror	r19
     2fc:	27 95       	ror	r18
     2fe:	1a 95       	dec	r17
     300:	d1 f7       	brne	.-12     	; 0x2f6 <bmp280_calc_temp+0xa0>
     302:	10 2d       	mov	r17, r0
     304:	a0 91 84 00 	lds	r26, 0x0084	; 0x800084 <__data_end>
     308:	b0 91 85 00 	lds	r27, 0x0085	; 0x800085 <__data_end+0x1>
     30c:	0e 94 8c 08 	call	0x1118	; 0x1118 <__mulshisi3>
     310:	dc 01       	movw	r26, r24
     312:	cb 01       	movw	r24, r22
     314:	07 2e       	mov	r0, r23
     316:	7e e0       	ldi	r23, 0x0E	; 14
     318:	b5 95       	asr	r27
     31a:	a7 95       	ror	r26
     31c:	97 95       	ror	r25
     31e:	87 95       	ror	r24
     320:	7a 95       	dec	r23
     322:	d1 f7       	brne	.-12     	; 0x318 <bmp280_calc_temp+0xc2>
     324:	70 2d       	mov	r23, r0
     326:	88 0d       	add	r24, r8
     328:	99 1d       	adc	r25, r9
     32a:	aa 1d       	adc	r26, r10
     32c:	bb 1d       	adc	r27, r11
     32e:	8c 01       	movw	r16, r24
     330:	9d 01       	movw	r18, r26
     332:	00 0f       	add	r16, r16
     334:	11 1f       	adc	r17, r17
     336:	22 1f       	adc	r18, r18
     338:	33 1f       	adc	r19, r19
     33a:	00 0f       	add	r16, r16
     33c:	11 1f       	adc	r17, r17
     33e:	22 1f       	adc	r18, r18
     340:	33 1f       	adc	r19, r19
     342:	80 0f       	add	r24, r16
     344:	91 1f       	adc	r25, r17
     346:	a2 1f       	adc	r26, r18
     348:	b3 1f       	adc	r27, r19
     34a:	80 58       	subi	r24, 0x80	; 128
     34c:	9f 4f       	sbci	r25, 0xFF	; 255
     34e:	af 4f       	sbci	r26, 0xFF	; 255
     350:	bf 4f       	sbci	r27, 0xFF	; 255
     352:	69 2f       	mov	r22, r25
     354:	7a 2f       	mov	r23, r26
     356:	8b 2f       	mov	r24, r27
     358:	99 27       	eor	r25, r25
     35a:	87 fd       	sbrc	r24, 7
     35c:	9a 95       	dec	r25
     35e:	0e 94 fb 03 	call	0x7f6	; 0x7f6 <__floatsisf>
     362:	20 e0       	ldi	r18, 0x00	; 0
     364:	30 e0       	ldi	r19, 0x00	; 0
     366:	48 ec       	ldi	r20, 0xC8	; 200
     368:	52 e4       	ldi	r21, 0x42	; 66
     36a:	0e 94 87 03 	call	0x70e	; 0x70e <__divsf3>
}
     36e:	1f 91       	pop	r17
     370:	0f 91       	pop	r16
     372:	ff 90       	pop	r15
     374:	ef 90       	pop	r14
     376:	df 90       	pop	r13
     378:	cf 90       	pop	r12
     37a:	bf 90       	pop	r11
     37c:	af 90       	pop	r10
     37e:	9f 90       	pop	r9
     380:	8f 90       	pop	r8
     382:	08 95       	ret

00000384 <convert_C_to_F>:

float convert_C_to_F(float c){
	return (c * 1.8) + 32.0;
     384:	26 e6       	ldi	r18, 0x66	; 102
     386:	36 e6       	ldi	r19, 0x66	; 102
     388:	46 ee       	ldi	r20, 0xE6	; 230
     38a:	5f e3       	ldi	r21, 0x3F	; 63
     38c:	0e 94 87 04 	call	0x90e	; 0x90e <__mulsf3>
     390:	20 e0       	ldi	r18, 0x00	; 0
     392:	30 e0       	ldi	r19, 0x00	; 0
     394:	40 e0       	ldi	r20, 0x00	; 0
     396:	52 e4       	ldi	r21, 0x42	; 66
     398:	0e 94 1b 03 	call	0x636	; 0x636 <__addsf3>
}
     39c:	08 95       	ret

0000039e <output>:
	char temp[2];
	sprintf(temp, "%hi", s);
	lcd_pos(row, col);
	lcd_puts(temp);
	
}
     39e:	66 23       	and	r22, r22
     3a0:	11 f0       	breq	.+4      	; 0x3a6 <output+0x8>
     3a2:	c0 9a       	sbi	0x18, 0	; 24
     3a4:	01 c0       	rjmp	.+2      	; 0x3a8 <output+0xa>
     3a6:	c0 98       	cbi	0x18, 0	; 24
     3a8:	c1 98       	cbi	0x18, 1	; 24
     3aa:	8b bb       	out	0x1b, r24	; 27
     3ac:	8f ef       	ldi	r24, 0xFF	; 255
     3ae:	8a bb       	out	0x1a, r24	; 26
     3b0:	c2 9a       	sbi	0x18, 2	; 24
     3b2:	00 00       	nop
     3b4:	00 00       	nop
     3b6:	00 00       	nop
     3b8:	c2 98       	cbi	0x18, 2	; 24
     3ba:	08 95       	ret

000003bc <write>:
     3bc:	c0 98       	cbi	0x18, 0	; 24
     3be:	c1 9a       	sbi	0x18, 1	; 24
     3c0:	1a ba       	out	0x1a, r1	; 26
     3c2:	99 b3       	in	r25, 0x19	; 25
     3c4:	c2 9a       	sbi	0x18, 2	; 24
     3c6:	00 00       	nop
     3c8:	00 00       	nop
     3ca:	00 00       	nop
     3cc:	1a ba       	out	0x1a, r1	; 26
     3ce:	99 b3       	in	r25, 0x19	; 25
     3d0:	c2 98       	cbi	0x18, 2	; 24
     3d2:	99 23       	and	r25, r25
     3d4:	9c f3       	brlt	.-26     	; 0x3bc <write>
     3d6:	0e 94 cf 01 	call	0x39e	; 0x39e <output>
     3da:	08 95       	ret

000003dc <lcd_init>:
     3dc:	b8 9a       	sbi	0x17, 0	; 23
     3de:	b9 9a       	sbi	0x17, 1	; 23
     3e0:	ba 9a       	sbi	0x17, 2	; 23
     3e2:	80 e1       	ldi	r24, 0x10	; 16
     3e4:	90 e0       	ldi	r25, 0x00	; 0
     3e6:	0e 94 ca 00 	call	0x194	; 0x194 <avr_wait>
     3ea:	60 e0       	ldi	r22, 0x00	; 0
     3ec:	80 e3       	ldi	r24, 0x30	; 48
     3ee:	0e 94 cf 01 	call	0x39e	; 0x39e <output>
     3f2:	85 e0       	ldi	r24, 0x05	; 5
     3f4:	90 e0       	ldi	r25, 0x00	; 0
     3f6:	0e 94 ca 00 	call	0x194	; 0x194 <avr_wait>
     3fa:	60 e0       	ldi	r22, 0x00	; 0
     3fc:	80 e3       	ldi	r24, 0x30	; 48
     3fe:	0e 94 cf 01 	call	0x39e	; 0x39e <output>
     402:	81 e0       	ldi	r24, 0x01	; 1
     404:	90 e0       	ldi	r25, 0x00	; 0
     406:	0e 94 ca 00 	call	0x194	; 0x194 <avr_wait>
     40a:	60 e0       	ldi	r22, 0x00	; 0
     40c:	8c e3       	ldi	r24, 0x3C	; 60
     40e:	0e 94 de 01 	call	0x3bc	; 0x3bc <write>
     412:	60 e0       	ldi	r22, 0x00	; 0
     414:	8c e0       	ldi	r24, 0x0C	; 12
     416:	0e 94 de 01 	call	0x3bc	; 0x3bc <write>
     41a:	60 e0       	ldi	r22, 0x00	; 0
     41c:	86 e0       	ldi	r24, 0x06	; 6
     41e:	0e 94 de 01 	call	0x3bc	; 0x3bc <write>
     422:	60 e0       	ldi	r22, 0x00	; 0
     424:	81 e0       	ldi	r24, 0x01	; 1
     426:	0e 94 de 01 	call	0x3bc	; 0x3bc <write>
     42a:	08 95       	ret

0000042c <lcd_pos>:
     42c:	cf 93       	push	r28
     42e:	c6 2f       	mov	r28, r22
     430:	98 e2       	ldi	r25, 0x28	; 40
     432:	89 9f       	mul	r24, r25
     434:	c0 0d       	add	r28, r0
     436:	11 24       	eor	r1, r1
     438:	60 e0       	ldi	r22, 0x00	; 0
     43a:	82 e0       	ldi	r24, 0x02	; 2
     43c:	0e 94 de 01 	call	0x3bc	; 0x3bc <write>
     440:	cc 23       	and	r28, r28
     442:	31 f0       	breq	.+12     	; 0x450 <lcd_pos+0x24>
     444:	60 e0       	ldi	r22, 0x00	; 0
     446:	84 e1       	ldi	r24, 0x14	; 20
     448:	0e 94 de 01 	call	0x3bc	; 0x3bc <write>
     44c:	c1 50       	subi	r28, 0x01	; 1
     44e:	d1 f7       	brne	.-12     	; 0x444 <lcd_pos+0x18>
     450:	cf 91       	pop	r28
     452:	08 95       	ret

00000454 <lcd_puts>:
     454:	cf 93       	push	r28
     456:	df 93       	push	r29
     458:	ec 01       	movw	r28, r24
     45a:	21 96       	adiw	r28, 0x01	; 1
     45c:	fc 01       	movw	r30, r24
     45e:	80 81       	ld	r24, Z
     460:	88 23       	and	r24, r24
     462:	31 f0       	breq	.+12     	; 0x470 <lcd_puts+0x1c>
     464:	61 e0       	ldi	r22, 0x01	; 1
     466:	0e 94 de 01 	call	0x3bc	; 0x3bc <write>
     46a:	89 91       	ld	r24, Y+
     46c:	81 11       	cpse	r24, r1
     46e:	fa cf       	rjmp	.-12     	; 0x464 <lcd_puts+0x10>
     470:	df 91       	pop	r29
     472:	cf 91       	pop	r28
     474:	08 95       	ret

00000476 <lcd_put_float>:

void 
lcd_put_float(float f, unsigned int row, unsigned int col){
     476:	ef 92       	push	r14
     478:	ff 92       	push	r15
     47a:	0f 93       	push	r16
     47c:	1f 93       	push	r17
     47e:	cf 93       	push	r28
     480:	df 93       	push	r29
     482:	00 d0       	rcall	.+0      	; 0x484 <lcd_put_float+0xe>
     484:	00 d0       	rcall	.+0      	; 0x486 <lcd_put_float+0x10>
     486:	cd b7       	in	r28, 0x3d	; 61
     488:	de b7       	in	r29, 0x3e	; 62
     48a:	f4 2e       	mov	r15, r20
     48c:	e2 2e       	mov	r14, r18
	char temp[4];
	sprintf(temp, "%.2f", f);
     48e:	9f 93       	push	r25
     490:	8f 93       	push	r24
     492:	7f 93       	push	r23
     494:	6f 93       	push	r22
     496:	88 e6       	ldi	r24, 0x68	; 104
     498:	90 e0       	ldi	r25, 0x00	; 0
     49a:	9f 93       	push	r25
     49c:	8f 93       	push	r24
     49e:	8e 01       	movw	r16, r28
     4a0:	0f 5f       	subi	r16, 0xFF	; 255
     4a2:	1f 4f       	sbci	r17, 0xFF	; 255
     4a4:	1f 93       	push	r17
     4a6:	0f 93       	push	r16
     4a8:	0e 94 04 0a 	call	0x1408	; 0x1408 <sprintf>
	lcd_pos(row, col);
     4ac:	6e 2d       	mov	r22, r14
     4ae:	8f 2d       	mov	r24, r15
     4b0:	0e 94 16 02 	call	0x42c	; 0x42c <lcd_pos>
	lcd_puts(temp);
     4b4:	c8 01       	movw	r24, r16
     4b6:	0e 94 2a 02 	call	0x454	; 0x454 <lcd_puts>
}
     4ba:	0f b6       	in	r0, 0x3f	; 63
     4bc:	f8 94       	cli
     4be:	de bf       	out	0x3e, r29	; 62
     4c0:	0f be       	out	0x3f, r0	; 63
     4c2:	cd bf       	out	0x3d, r28	; 61
     4c4:	0f 90       	pop	r0
     4c6:	0f 90       	pop	r0
     4c8:	0f 90       	pop	r0
     4ca:	0f 90       	pop	r0
     4cc:	df 91       	pop	r29
     4ce:	cf 91       	pop	r28
     4d0:	1f 91       	pop	r17
     4d2:	0f 91       	pop	r16
     4d4:	ff 90       	pop	r15
     4d6:	ef 90       	pop	r14
     4d8:	08 95       	ret

000004da <main>:
#include "twi.h"
#include "bmp280.h"

int main(void)
{
	lcd_init();
     4da:	0e 94 ee 01 	call	0x3dc	; 0x3dc <lcd_init>
	twi_init();
     4de:	0e 94 95 02 	call	0x52a	; 0x52a <twi_init>
	
	//init bmp280
	if(!bmp280_init()){
     4e2:	0e 94 20 01 	call	0x240	; 0x240 <bmp280_init>
     4e6:	89 2b       	or	r24, r25
     4e8:	89 f4       	brne	.+34     	; 0x50c <main+0x32>
		lcd_pos(0,0);
     4ea:	60 e0       	ldi	r22, 0x00	; 0
     4ec:	80 e0       	ldi	r24, 0x00	; 0
     4ee:	0e 94 16 02 	call	0x42c	; 0x42c <lcd_pos>
		lcd_puts("ERROR!");
     4f2:	8d e6       	ldi	r24, 0x6D	; 109
     4f4:	90 e0       	ldi	r25, 0x00	; 0
     4f6:	0e 94 2a 02 	call	0x454	; 0x454 <lcd_puts>
		lcd_pos(1,0);
     4fa:	60 e0       	ldi	r22, 0x00	; 0
     4fc:	81 e0       	ldi	r24, 0x01	; 1
     4fe:	0e 94 16 02 	call	0x42c	; 0x42c <lcd_pos>
		lcd_puts("BMP280 wrong ID");
     502:	84 e7       	ldi	r24, 0x74	; 116
     504:	90 e0       	ldi	r25, 0x00	; 0
     506:	0e 94 2a 02 	call	0x454	; 0x454 <lcd_puts>
     50a:	ff cf       	rjmp	.-2      	; 0x50a <main+0x30>
		while(1);
	}
	
    while (1) 
    {
		lcd_put_float(convert_C_to_F(bmp280_calc_temp()), 0, 0);
     50c:	0e 94 2b 01 	call	0x256	; 0x256 <bmp280_calc_temp>
     510:	0e 94 c2 01 	call	0x384	; 0x384 <convert_C_to_F>
     514:	20 e0       	ldi	r18, 0x00	; 0
     516:	30 e0       	ldi	r19, 0x00	; 0
     518:	40 e0       	ldi	r20, 0x00	; 0
     51a:	50 e0       	ldi	r21, 0x00	; 0
     51c:	0e 94 3b 02 	call	0x476	; 0x476 <lcd_put_float>
		avr_wait(1000);
     520:	88 ee       	ldi	r24, 0xE8	; 232
     522:	93 e0       	ldi	r25, 0x03	; 3
     524:	0e 94 ca 00 	call	0x194	; 0x194 <avr_wait>
     528:	f1 cf       	rjmp	.-30     	; 0x50c <main+0x32>

0000052a <twi_init>:
#include "twi.h"
#include <avr/io.h>

void twi_init(){
	TWBR = 0x00;
     52a:	10 b8       	out	0x00, r1	; 0
	TWBR= 0x0C;//double check this
     52c:	8c e0       	ldi	r24, 0x0C	; 12
     52e:	80 b9       	out	0x00, r24	; 0
     530:	08 95       	ret

00000532 <twi_start>:
}
//Send start condition
void twi_start(){
	TWCR = (1<<TWINT)|(1<<TWSTA)|(1<<TWEN);
     532:	84 ea       	ldi	r24, 0xA4	; 164
     534:	86 bf       	out	0x36, r24	; 54
	while(!(TWCR & (1<<TWINT)));
     536:	06 b6       	in	r0, 0x36	; 54
     538:	07 fe       	sbrs	r0, 7
     53a:	fd cf       	rjmp	.-6      	; 0x536 <twi_start+0x4>
	//while((TWSR & (0xF8)) != 0x08);
}
     53c:	08 95       	ret

0000053e <twi_write_addr_w>:
void twi_write_addr_w(unsigned char addr){
	TWDR= addr;
     53e:	83 b9       	out	0x03, r24	; 3
	TWCR = (1<<TWINT)|(1<<TWEN);
     540:	84 e8       	ldi	r24, 0x84	; 132
     542:	86 bf       	out	0x36, r24	; 54
	while(!(TWCR & (1<<TWINT)));
     544:	06 b6       	in	r0, 0x36	; 54
     546:	07 fe       	sbrs	r0, 7
     548:	fd cf       	rjmp	.-6      	; 0x544 <twi_write_addr_w+0x6>
	//while((TWSR & (0xF8)) != 0x18); //check status
}
     54a:	08 95       	ret

0000054c <twi_write_byte>:

void twi_write_byte(unsigned char data){
	TWDR = data;
     54c:	83 b9       	out	0x03, r24	; 3
	TWCR = (1<<TWINT)|(1<<TWEN);
     54e:	84 e8       	ldi	r24, 0x84	; 132
     550:	86 bf       	out	0x36, r24	; 54
	while(!(TWCR & (1<<TWINT)));
     552:	06 b6       	in	r0, 0x36	; 54
     554:	07 fe       	sbrs	r0, 7
     556:	fd cf       	rjmp	.-6      	; 0x552 <twi_write_byte+0x6>
	//while((TWSR & (0xF8)) != 0x28); //check status
}
     558:	08 95       	ret

0000055a <twi_write_addr_r>:

void twi_write_addr_r(unsigned char addr){
	TWDR= addr;
     55a:	83 b9       	out	0x03, r24	; 3
	TWCR = (1<<TWINT)|(1<<TWEN);
     55c:	84 e8       	ldi	r24, 0x84	; 132
     55e:	86 bf       	out	0x36, r24	; 54
	while(!(TWCR & (1<<TWINT)));
     560:	06 b6       	in	r0, 0x36	; 54
     562:	07 fe       	sbrs	r0, 7
     564:	fd cf       	rjmp	.-6      	; 0x560 <twi_write_addr_r+0x6>
	//while((TWSR & (0xF8)) != 0x40); //check status
}
     566:	08 95       	ret

00000568 <twi_read_byte>:

unsigned char twi_read_byte(){
	unsigned char data;
	TWCR = (1<<TWINT)|(1<<TWEN)|(1<<TWEA);
     568:	84 ec       	ldi	r24, 0xC4	; 196
     56a:	86 bf       	out	0x36, r24	; 54
	while(!(TWCR & (1<<TWINT)));
     56c:	06 b6       	in	r0, 0x36	; 54
     56e:	07 fe       	sbrs	r0, 7
     570:	fd cf       	rjmp	.-6      	; 0x56c <twi_read_byte+0x4>
	data = TWDR;
     572:	83 b1       	in	r24, 0x03	; 3
	//while((TWSR & (0xF8)) != 0x50); //check status
	return data;
	
}
     574:	08 95       	ret

00000576 <twi_read_last_byte>:

unsigned char twi_read_last_byte(){
	unsigned char data;
	
	TWCR = (1<<TWINT)|(1<<TWEN);//TWEA = 0  to send NACK
     576:	84 e8       	ldi	r24, 0x84	; 132
     578:	86 bf       	out	0x36, r24	; 54
	while(!(TWCR & (1<<TWINT)));
     57a:	06 b6       	in	r0, 0x36	; 54
     57c:	07 fe       	sbrs	r0, 7
     57e:	fd cf       	rjmp	.-6      	; 0x57a <twi_read_last_byte+0x4>
	data = TWDR;
     580:	83 b1       	in	r24, 0x03	; 3
	//while((TWSR & (0xF8)) != 0x58); //check status
	return data;
}
     582:	08 95       	ret

00000584 <twi_stop>:

void twi_stop(){
	TWCR = (1<<TWINT)|(1<<TWEN)|(1<<TWSTO);
     584:	84 e9       	ldi	r24, 0x94	; 148
     586:	86 bf       	out	0x36, r24	; 54
     588:	08 95       	ret

0000058a <twi_read16>:
}

unsigned short twi_read16(unsigned char reg, unsigned char addrw, unsigned char addrr){
     58a:	1f 93       	push	r17
     58c:	cf 93       	push	r28
     58e:	df 93       	push	r29
     590:	d8 2f       	mov	r29, r24
     592:	16 2f       	mov	r17, r22
     594:	c4 2f       	mov	r28, r20
	unsigned short data;
	unsigned short temp;
	//Format [b2] [b1]
	twi_start();
     596:	0e 94 99 02 	call	0x532	; 0x532 <twi_start>
	twi_write_addr_w(addrw);
     59a:	81 2f       	mov	r24, r17
     59c:	0e 94 9f 02 	call	0x53e	; 0x53e <twi_write_addr_w>
	twi_write_byte(reg);
     5a0:	8d 2f       	mov	r24, r29
     5a2:	0e 94 a6 02 	call	0x54c	; 0x54c <twi_write_byte>
	//twi_stop(); //stop not needed
	twi_start();
     5a6:	0e 94 99 02 	call	0x532	; 0x532 <twi_start>
	twi_write_addr_r(addrr);
     5aa:	8c 2f       	mov	r24, r28
     5ac:	0e 94 ad 02 	call	0x55a	; 0x55a <twi_write_addr_r>
	data = twi_read_byte();
     5b0:	0e 94 b4 02 	call	0x568	; 0x568 <twi_read_byte>
     5b4:	c8 2f       	mov	r28, r24
     5b6:	d0 e0       	ldi	r29, 0x00	; 0
	temp = twi_read_last_byte();
     5b8:	0e 94 bb 02 	call	0x576	; 0x576 <twi_read_last_byte>
	//while((TWSR & (0xF8)) != 0x58); //check status
	return data;
}

void twi_stop(){
	TWCR = (1<<TWINT)|(1<<TWEN)|(1<<TWSTO);
     5bc:	94 e9       	ldi	r25, 0x94	; 148
     5be:	96 bf       	out	0x36, r25	; 54
	temp = twi_read_last_byte();
	twi_stop();
	temp <<= 8;
	data |= temp;
	return data;
}
     5c0:	9e 01       	movw	r18, r28
     5c2:	38 2b       	or	r19, r24
     5c4:	c9 01       	movw	r24, r18
     5c6:	df 91       	pop	r29
     5c8:	cf 91       	pop	r28
     5ca:	1f 91       	pop	r17
     5cc:	08 95       	ret

000005ce <twi_read24REV>:

uint32_t twi_read24REV(unsigned char reg, unsigned char addrw, unsigned char addrr){
     5ce:	cf 92       	push	r12
     5d0:	df 92       	push	r13
     5d2:	ef 92       	push	r14
     5d4:	ff 92       	push	r15
     5d6:	e8 2e       	mov	r14, r24
     5d8:	d6 2e       	mov	r13, r22
     5da:	f4 2e       	mov	r15, r20
	//format [b1][b2][b3]
	uint32_t data;
	twi_start();
     5dc:	0e 94 99 02 	call	0x532	; 0x532 <twi_start>
	twi_write_addr_w(addrw);
     5e0:	8d 2d       	mov	r24, r13
     5e2:	0e 94 9f 02 	call	0x53e	; 0x53e <twi_write_addr_w>
	twi_write_byte(reg);
     5e6:	8e 2d       	mov	r24, r14
     5e8:	0e 94 a6 02 	call	0x54c	; 0x54c <twi_write_byte>
	twi_start();
     5ec:	0e 94 99 02 	call	0x532	; 0x532 <twi_start>
	twi_write_addr_r(addrr);
     5f0:	8f 2d       	mov	r24, r15
     5f2:	0e 94 ad 02 	call	0x55a	; 0x55a <twi_write_addr_r>
	data = twi_read_byte();
     5f6:	0e 94 b4 02 	call	0x568	; 0x568 <twi_read_byte>
     5fa:	c8 2e       	mov	r12, r24
     5fc:	d1 2c       	mov	r13, r1
     5fe:	e1 2c       	mov	r14, r1
     600:	f1 2c       	mov	r15, r1
	data <<= 8;
     602:	fe 2c       	mov	r15, r14
     604:	ed 2c       	mov	r14, r13
     606:	dc 2c       	mov	r13, r12
     608:	cc 24       	eor	r12, r12
	data |=twi_read_byte();
     60a:	0e 94 b4 02 	call	0x568	; 0x568 <twi_read_byte>
     60e:	c8 2a       	or	r12, r24
	data <<= 8;
     610:	fe 2c       	mov	r15, r14
     612:	ed 2c       	mov	r14, r13
     614:	dc 2c       	mov	r13, r12
     616:	cc 24       	eor	r12, r12
	data |= twi_read_last_byte();
     618:	0e 94 bb 02 	call	0x576	; 0x576 <twi_read_last_byte>
	//while((TWSR & (0xF8)) != 0x58); //check status
	return data;
}

void twi_stop(){
	TWCR = (1<<TWINT)|(1<<TWEN)|(1<<TWSTO);
     61c:	94 e9       	ldi	r25, 0x94	; 148
     61e:	96 bf       	out	0x36, r25	; 54
	data <<= 8;
	data |=twi_read_byte();
	data <<= 8;
	data |= twi_read_last_byte();
	twi_stop();
	return data;
     620:	a7 01       	movw	r20, r14
     622:	96 01       	movw	r18, r12
     624:	28 2b       	or	r18, r24
     626:	ca 01       	movw	r24, r20
     628:	b9 01       	movw	r22, r18
     62a:	ff 90       	pop	r15
     62c:	ef 90       	pop	r14
     62e:	df 90       	pop	r13
     630:	cf 90       	pop	r12
     632:	08 95       	ret

00000634 <__subsf3>:
     634:	50 58       	subi	r21, 0x80	; 128

00000636 <__addsf3>:
     636:	bb 27       	eor	r27, r27
     638:	aa 27       	eor	r26, r26
     63a:	0e 94 32 03 	call	0x664	; 0x664 <__addsf3x>
     63e:	0c 94 4d 04 	jmp	0x89a	; 0x89a <__fp_round>
     642:	0e 94 3f 04 	call	0x87e	; 0x87e <__fp_pscA>
     646:	38 f0       	brcs	.+14     	; 0x656 <__addsf3+0x20>
     648:	0e 94 46 04 	call	0x88c	; 0x88c <__fp_pscB>
     64c:	20 f0       	brcs	.+8      	; 0x656 <__addsf3+0x20>
     64e:	39 f4       	brne	.+14     	; 0x65e <__addsf3+0x28>
     650:	9f 3f       	cpi	r25, 0xFF	; 255
     652:	19 f4       	brne	.+6      	; 0x65a <__addsf3+0x24>
     654:	26 f4       	brtc	.+8      	; 0x65e <__addsf3+0x28>
     656:	0c 94 3c 04 	jmp	0x878	; 0x878 <__fp_nan>
     65a:	0e f4       	brtc	.+2      	; 0x65e <__addsf3+0x28>
     65c:	e0 95       	com	r30
     65e:	e7 fb       	bst	r30, 7
     660:	0c 94 36 04 	jmp	0x86c	; 0x86c <__fp_inf>

00000664 <__addsf3x>:
     664:	e9 2f       	mov	r30, r25
     666:	0e 94 5e 04 	call	0x8bc	; 0x8bc <__fp_split3>
     66a:	58 f3       	brcs	.-42     	; 0x642 <__addsf3+0xc>
     66c:	ba 17       	cp	r27, r26
     66e:	62 07       	cpc	r22, r18
     670:	73 07       	cpc	r23, r19
     672:	84 07       	cpc	r24, r20
     674:	95 07       	cpc	r25, r21
     676:	20 f0       	brcs	.+8      	; 0x680 <__addsf3x+0x1c>
     678:	79 f4       	brne	.+30     	; 0x698 <__addsf3x+0x34>
     67a:	a6 f5       	brtc	.+104    	; 0x6e4 <__addsf3x+0x80>
     67c:	0c 94 80 04 	jmp	0x900	; 0x900 <__fp_zero>
     680:	0e f4       	brtc	.+2      	; 0x684 <__addsf3x+0x20>
     682:	e0 95       	com	r30
     684:	0b 2e       	mov	r0, r27
     686:	ba 2f       	mov	r27, r26
     688:	a0 2d       	mov	r26, r0
     68a:	0b 01       	movw	r0, r22
     68c:	b9 01       	movw	r22, r18
     68e:	90 01       	movw	r18, r0
     690:	0c 01       	movw	r0, r24
     692:	ca 01       	movw	r24, r20
     694:	a0 01       	movw	r20, r0
     696:	11 24       	eor	r1, r1
     698:	ff 27       	eor	r31, r31
     69a:	59 1b       	sub	r21, r25
     69c:	99 f0       	breq	.+38     	; 0x6c4 <__addsf3x+0x60>
     69e:	59 3f       	cpi	r21, 0xF9	; 249
     6a0:	50 f4       	brcc	.+20     	; 0x6b6 <__addsf3x+0x52>
     6a2:	50 3e       	cpi	r21, 0xE0	; 224
     6a4:	68 f1       	brcs	.+90     	; 0x700 <__addsf3x+0x9c>
     6a6:	1a 16       	cp	r1, r26
     6a8:	f0 40       	sbci	r31, 0x00	; 0
     6aa:	a2 2f       	mov	r26, r18
     6ac:	23 2f       	mov	r18, r19
     6ae:	34 2f       	mov	r19, r20
     6b0:	44 27       	eor	r20, r20
     6b2:	58 5f       	subi	r21, 0xF8	; 248
     6b4:	f3 cf       	rjmp	.-26     	; 0x69c <__addsf3x+0x38>
     6b6:	46 95       	lsr	r20
     6b8:	37 95       	ror	r19
     6ba:	27 95       	ror	r18
     6bc:	a7 95       	ror	r26
     6be:	f0 40       	sbci	r31, 0x00	; 0
     6c0:	53 95       	inc	r21
     6c2:	c9 f7       	brne	.-14     	; 0x6b6 <__addsf3x+0x52>
     6c4:	7e f4       	brtc	.+30     	; 0x6e4 <__addsf3x+0x80>
     6c6:	1f 16       	cp	r1, r31
     6c8:	ba 0b       	sbc	r27, r26
     6ca:	62 0b       	sbc	r22, r18
     6cc:	73 0b       	sbc	r23, r19
     6ce:	84 0b       	sbc	r24, r20
     6d0:	ba f0       	brmi	.+46     	; 0x700 <__addsf3x+0x9c>
     6d2:	91 50       	subi	r25, 0x01	; 1
     6d4:	a1 f0       	breq	.+40     	; 0x6fe <__addsf3x+0x9a>
     6d6:	ff 0f       	add	r31, r31
     6d8:	bb 1f       	adc	r27, r27
     6da:	66 1f       	adc	r22, r22
     6dc:	77 1f       	adc	r23, r23
     6de:	88 1f       	adc	r24, r24
     6e0:	c2 f7       	brpl	.-16     	; 0x6d2 <__addsf3x+0x6e>
     6e2:	0e c0       	rjmp	.+28     	; 0x700 <__addsf3x+0x9c>
     6e4:	ba 0f       	add	r27, r26
     6e6:	62 1f       	adc	r22, r18
     6e8:	73 1f       	adc	r23, r19
     6ea:	84 1f       	adc	r24, r20
     6ec:	48 f4       	brcc	.+18     	; 0x700 <__addsf3x+0x9c>
     6ee:	87 95       	ror	r24
     6f0:	77 95       	ror	r23
     6f2:	67 95       	ror	r22
     6f4:	b7 95       	ror	r27
     6f6:	f7 95       	ror	r31
     6f8:	9e 3f       	cpi	r25, 0xFE	; 254
     6fa:	08 f0       	brcs	.+2      	; 0x6fe <__addsf3x+0x9a>
     6fc:	b0 cf       	rjmp	.-160    	; 0x65e <__addsf3+0x28>
     6fe:	93 95       	inc	r25
     700:	88 0f       	add	r24, r24
     702:	08 f0       	brcs	.+2      	; 0x706 <__addsf3x+0xa2>
     704:	99 27       	eor	r25, r25
     706:	ee 0f       	add	r30, r30
     708:	97 95       	ror	r25
     70a:	87 95       	ror	r24
     70c:	08 95       	ret

0000070e <__divsf3>:
     70e:	0e 94 9b 03 	call	0x736	; 0x736 <__divsf3x>
     712:	0c 94 4d 04 	jmp	0x89a	; 0x89a <__fp_round>
     716:	0e 94 46 04 	call	0x88c	; 0x88c <__fp_pscB>
     71a:	58 f0       	brcs	.+22     	; 0x732 <__divsf3+0x24>
     71c:	0e 94 3f 04 	call	0x87e	; 0x87e <__fp_pscA>
     720:	40 f0       	brcs	.+16     	; 0x732 <__divsf3+0x24>
     722:	29 f4       	brne	.+10     	; 0x72e <__divsf3+0x20>
     724:	5f 3f       	cpi	r21, 0xFF	; 255
     726:	29 f0       	breq	.+10     	; 0x732 <__divsf3+0x24>
     728:	0c 94 36 04 	jmp	0x86c	; 0x86c <__fp_inf>
     72c:	51 11       	cpse	r21, r1
     72e:	0c 94 81 04 	jmp	0x902	; 0x902 <__fp_szero>
     732:	0c 94 3c 04 	jmp	0x878	; 0x878 <__fp_nan>

00000736 <__divsf3x>:
     736:	0e 94 5e 04 	call	0x8bc	; 0x8bc <__fp_split3>
     73a:	68 f3       	brcs	.-38     	; 0x716 <__divsf3+0x8>

0000073c <__divsf3_pse>:
     73c:	99 23       	and	r25, r25
     73e:	b1 f3       	breq	.-20     	; 0x72c <__divsf3+0x1e>
     740:	55 23       	and	r21, r21
     742:	91 f3       	breq	.-28     	; 0x728 <__divsf3+0x1a>
     744:	95 1b       	sub	r25, r21
     746:	55 0b       	sbc	r21, r21
     748:	bb 27       	eor	r27, r27
     74a:	aa 27       	eor	r26, r26
     74c:	62 17       	cp	r22, r18
     74e:	73 07       	cpc	r23, r19
     750:	84 07       	cpc	r24, r20
     752:	38 f0       	brcs	.+14     	; 0x762 <__divsf3_pse+0x26>
     754:	9f 5f       	subi	r25, 0xFF	; 255
     756:	5f 4f       	sbci	r21, 0xFF	; 255
     758:	22 0f       	add	r18, r18
     75a:	33 1f       	adc	r19, r19
     75c:	44 1f       	adc	r20, r20
     75e:	aa 1f       	adc	r26, r26
     760:	a9 f3       	breq	.-22     	; 0x74c <__divsf3_pse+0x10>
     762:	35 d0       	rcall	.+106    	; 0x7ce <__divsf3_pse+0x92>
     764:	0e 2e       	mov	r0, r30
     766:	3a f0       	brmi	.+14     	; 0x776 <__divsf3_pse+0x3a>
     768:	e0 e8       	ldi	r30, 0x80	; 128
     76a:	32 d0       	rcall	.+100    	; 0x7d0 <__divsf3_pse+0x94>
     76c:	91 50       	subi	r25, 0x01	; 1
     76e:	50 40       	sbci	r21, 0x00	; 0
     770:	e6 95       	lsr	r30
     772:	00 1c       	adc	r0, r0
     774:	ca f7       	brpl	.-14     	; 0x768 <__divsf3_pse+0x2c>
     776:	2b d0       	rcall	.+86     	; 0x7ce <__divsf3_pse+0x92>
     778:	fe 2f       	mov	r31, r30
     77a:	29 d0       	rcall	.+82     	; 0x7ce <__divsf3_pse+0x92>
     77c:	66 0f       	add	r22, r22
     77e:	77 1f       	adc	r23, r23
     780:	88 1f       	adc	r24, r24
     782:	bb 1f       	adc	r27, r27
     784:	26 17       	cp	r18, r22
     786:	37 07       	cpc	r19, r23
     788:	48 07       	cpc	r20, r24
     78a:	ab 07       	cpc	r26, r27
     78c:	b0 e8       	ldi	r27, 0x80	; 128
     78e:	09 f0       	breq	.+2      	; 0x792 <__divsf3_pse+0x56>
     790:	bb 0b       	sbc	r27, r27
     792:	80 2d       	mov	r24, r0
     794:	bf 01       	movw	r22, r30
     796:	ff 27       	eor	r31, r31
     798:	93 58       	subi	r25, 0x83	; 131
     79a:	5f 4f       	sbci	r21, 0xFF	; 255
     79c:	3a f0       	brmi	.+14     	; 0x7ac <__divsf3_pse+0x70>
     79e:	9e 3f       	cpi	r25, 0xFE	; 254
     7a0:	51 05       	cpc	r21, r1
     7a2:	78 f0       	brcs	.+30     	; 0x7c2 <__divsf3_pse+0x86>
     7a4:	0c 94 36 04 	jmp	0x86c	; 0x86c <__fp_inf>
     7a8:	0c 94 81 04 	jmp	0x902	; 0x902 <__fp_szero>
     7ac:	5f 3f       	cpi	r21, 0xFF	; 255
     7ae:	e4 f3       	brlt	.-8      	; 0x7a8 <__divsf3_pse+0x6c>
     7b0:	98 3e       	cpi	r25, 0xE8	; 232
     7b2:	d4 f3       	brlt	.-12     	; 0x7a8 <__divsf3_pse+0x6c>
     7b4:	86 95       	lsr	r24
     7b6:	77 95       	ror	r23
     7b8:	67 95       	ror	r22
     7ba:	b7 95       	ror	r27
     7bc:	f7 95       	ror	r31
     7be:	9f 5f       	subi	r25, 0xFF	; 255
     7c0:	c9 f7       	brne	.-14     	; 0x7b4 <__divsf3_pse+0x78>
     7c2:	88 0f       	add	r24, r24
     7c4:	91 1d       	adc	r25, r1
     7c6:	96 95       	lsr	r25
     7c8:	87 95       	ror	r24
     7ca:	97 f9       	bld	r25, 7
     7cc:	08 95       	ret
     7ce:	e1 e0       	ldi	r30, 0x01	; 1
     7d0:	66 0f       	add	r22, r22
     7d2:	77 1f       	adc	r23, r23
     7d4:	88 1f       	adc	r24, r24
     7d6:	bb 1f       	adc	r27, r27
     7d8:	62 17       	cp	r22, r18
     7da:	73 07       	cpc	r23, r19
     7dc:	84 07       	cpc	r24, r20
     7de:	ba 07       	cpc	r27, r26
     7e0:	20 f0       	brcs	.+8      	; 0x7ea <__divsf3_pse+0xae>
     7e2:	62 1b       	sub	r22, r18
     7e4:	73 0b       	sbc	r23, r19
     7e6:	84 0b       	sbc	r24, r20
     7e8:	ba 0b       	sbc	r27, r26
     7ea:	ee 1f       	adc	r30, r30
     7ec:	88 f7       	brcc	.-30     	; 0x7d0 <__divsf3_pse+0x94>
     7ee:	e0 95       	com	r30
     7f0:	08 95       	ret

000007f2 <__floatunsisf>:
     7f2:	e8 94       	clt
     7f4:	09 c0       	rjmp	.+18     	; 0x808 <__DATA_REGION_LENGTH__+0x8>

000007f6 <__floatsisf>:
     7f6:	97 fb       	bst	r25, 7
     7f8:	3e f4       	brtc	.+14     	; 0x808 <__DATA_REGION_LENGTH__+0x8>
     7fa:	90 95       	com	r25
     7fc:	80 95       	com	r24
     7fe:	70 95       	com	r23
     800:	61 95       	neg	r22
     802:	7f 4f       	sbci	r23, 0xFF	; 255
     804:	8f 4f       	sbci	r24, 0xFF	; 255
     806:	9f 4f       	sbci	r25, 0xFF	; 255
     808:	99 23       	and	r25, r25
     80a:	a9 f0       	breq	.+42     	; 0x836 <__DATA_REGION_LENGTH__+0x36>
     80c:	f9 2f       	mov	r31, r25
     80e:	96 e9       	ldi	r25, 0x96	; 150
     810:	bb 27       	eor	r27, r27
     812:	93 95       	inc	r25
     814:	f6 95       	lsr	r31
     816:	87 95       	ror	r24
     818:	77 95       	ror	r23
     81a:	67 95       	ror	r22
     81c:	b7 95       	ror	r27
     81e:	f1 11       	cpse	r31, r1
     820:	f8 cf       	rjmp	.-16     	; 0x812 <__DATA_REGION_LENGTH__+0x12>
     822:	fa f4       	brpl	.+62     	; 0x862 <__stack+0x3>
     824:	bb 0f       	add	r27, r27
     826:	11 f4       	brne	.+4      	; 0x82c <__DATA_REGION_LENGTH__+0x2c>
     828:	60 ff       	sbrs	r22, 0
     82a:	1b c0       	rjmp	.+54     	; 0x862 <__stack+0x3>
     82c:	6f 5f       	subi	r22, 0xFF	; 255
     82e:	7f 4f       	sbci	r23, 0xFF	; 255
     830:	8f 4f       	sbci	r24, 0xFF	; 255
     832:	9f 4f       	sbci	r25, 0xFF	; 255
     834:	16 c0       	rjmp	.+44     	; 0x862 <__stack+0x3>
     836:	88 23       	and	r24, r24
     838:	11 f0       	breq	.+4      	; 0x83e <__DATA_REGION_LENGTH__+0x3e>
     83a:	96 e9       	ldi	r25, 0x96	; 150
     83c:	11 c0       	rjmp	.+34     	; 0x860 <__stack+0x1>
     83e:	77 23       	and	r23, r23
     840:	21 f0       	breq	.+8      	; 0x84a <__DATA_REGION_LENGTH__+0x4a>
     842:	9e e8       	ldi	r25, 0x8E	; 142
     844:	87 2f       	mov	r24, r23
     846:	76 2f       	mov	r23, r22
     848:	05 c0       	rjmp	.+10     	; 0x854 <__DATA_REGION_LENGTH__+0x54>
     84a:	66 23       	and	r22, r22
     84c:	71 f0       	breq	.+28     	; 0x86a <__stack+0xb>
     84e:	96 e8       	ldi	r25, 0x86	; 134
     850:	86 2f       	mov	r24, r22
     852:	70 e0       	ldi	r23, 0x00	; 0
     854:	60 e0       	ldi	r22, 0x00	; 0
     856:	2a f0       	brmi	.+10     	; 0x862 <__stack+0x3>
     858:	9a 95       	dec	r25
     85a:	66 0f       	add	r22, r22
     85c:	77 1f       	adc	r23, r23
     85e:	88 1f       	adc	r24, r24
     860:	da f7       	brpl	.-10     	; 0x858 <__DATA_REGION_LENGTH__+0x58>
     862:	88 0f       	add	r24, r24
     864:	96 95       	lsr	r25
     866:	87 95       	ror	r24
     868:	97 f9       	bld	r25, 7
     86a:	08 95       	ret

0000086c <__fp_inf>:
     86c:	97 f9       	bld	r25, 7
     86e:	9f 67       	ori	r25, 0x7F	; 127
     870:	80 e8       	ldi	r24, 0x80	; 128
     872:	70 e0       	ldi	r23, 0x00	; 0
     874:	60 e0       	ldi	r22, 0x00	; 0
     876:	08 95       	ret

00000878 <__fp_nan>:
     878:	9f ef       	ldi	r25, 0xFF	; 255
     87a:	80 ec       	ldi	r24, 0xC0	; 192
     87c:	08 95       	ret

0000087e <__fp_pscA>:
     87e:	00 24       	eor	r0, r0
     880:	0a 94       	dec	r0
     882:	16 16       	cp	r1, r22
     884:	17 06       	cpc	r1, r23
     886:	18 06       	cpc	r1, r24
     888:	09 06       	cpc	r0, r25
     88a:	08 95       	ret

0000088c <__fp_pscB>:
     88c:	00 24       	eor	r0, r0
     88e:	0a 94       	dec	r0
     890:	12 16       	cp	r1, r18
     892:	13 06       	cpc	r1, r19
     894:	14 06       	cpc	r1, r20
     896:	05 06       	cpc	r0, r21
     898:	08 95       	ret

0000089a <__fp_round>:
     89a:	09 2e       	mov	r0, r25
     89c:	03 94       	inc	r0
     89e:	00 0c       	add	r0, r0
     8a0:	11 f4       	brne	.+4      	; 0x8a6 <__fp_round+0xc>
     8a2:	88 23       	and	r24, r24
     8a4:	52 f0       	brmi	.+20     	; 0x8ba <__fp_round+0x20>
     8a6:	bb 0f       	add	r27, r27
     8a8:	40 f4       	brcc	.+16     	; 0x8ba <__fp_round+0x20>
     8aa:	bf 2b       	or	r27, r31
     8ac:	11 f4       	brne	.+4      	; 0x8b2 <__fp_round+0x18>
     8ae:	60 ff       	sbrs	r22, 0
     8b0:	04 c0       	rjmp	.+8      	; 0x8ba <__fp_round+0x20>
     8b2:	6f 5f       	subi	r22, 0xFF	; 255
     8b4:	7f 4f       	sbci	r23, 0xFF	; 255
     8b6:	8f 4f       	sbci	r24, 0xFF	; 255
     8b8:	9f 4f       	sbci	r25, 0xFF	; 255
     8ba:	08 95       	ret

000008bc <__fp_split3>:
     8bc:	57 fd       	sbrc	r21, 7
     8be:	90 58       	subi	r25, 0x80	; 128
     8c0:	44 0f       	add	r20, r20
     8c2:	55 1f       	adc	r21, r21
     8c4:	59 f0       	breq	.+22     	; 0x8dc <__fp_splitA+0x10>
     8c6:	5f 3f       	cpi	r21, 0xFF	; 255
     8c8:	71 f0       	breq	.+28     	; 0x8e6 <__fp_splitA+0x1a>
     8ca:	47 95       	ror	r20

000008cc <__fp_splitA>:
     8cc:	88 0f       	add	r24, r24
     8ce:	97 fb       	bst	r25, 7
     8d0:	99 1f       	adc	r25, r25
     8d2:	61 f0       	breq	.+24     	; 0x8ec <__fp_splitA+0x20>
     8d4:	9f 3f       	cpi	r25, 0xFF	; 255
     8d6:	79 f0       	breq	.+30     	; 0x8f6 <__fp_splitA+0x2a>
     8d8:	87 95       	ror	r24
     8da:	08 95       	ret
     8dc:	12 16       	cp	r1, r18
     8de:	13 06       	cpc	r1, r19
     8e0:	14 06       	cpc	r1, r20
     8e2:	55 1f       	adc	r21, r21
     8e4:	f2 cf       	rjmp	.-28     	; 0x8ca <__fp_split3+0xe>
     8e6:	46 95       	lsr	r20
     8e8:	f1 df       	rcall	.-30     	; 0x8cc <__fp_splitA>
     8ea:	08 c0       	rjmp	.+16     	; 0x8fc <__fp_splitA+0x30>
     8ec:	16 16       	cp	r1, r22
     8ee:	17 06       	cpc	r1, r23
     8f0:	18 06       	cpc	r1, r24
     8f2:	99 1f       	adc	r25, r25
     8f4:	f1 cf       	rjmp	.-30     	; 0x8d8 <__fp_splitA+0xc>
     8f6:	86 95       	lsr	r24
     8f8:	71 05       	cpc	r23, r1
     8fa:	61 05       	cpc	r22, r1
     8fc:	08 94       	sec
     8fe:	08 95       	ret

00000900 <__fp_zero>:
     900:	e8 94       	clt

00000902 <__fp_szero>:
     902:	bb 27       	eor	r27, r27
     904:	66 27       	eor	r22, r22
     906:	77 27       	eor	r23, r23
     908:	cb 01       	movw	r24, r22
     90a:	97 f9       	bld	r25, 7
     90c:	08 95       	ret

0000090e <__mulsf3>:
     90e:	0e 94 9a 04 	call	0x934	; 0x934 <__mulsf3x>
     912:	0c 94 4d 04 	jmp	0x89a	; 0x89a <__fp_round>
     916:	0e 94 3f 04 	call	0x87e	; 0x87e <__fp_pscA>
     91a:	38 f0       	brcs	.+14     	; 0x92a <__mulsf3+0x1c>
     91c:	0e 94 46 04 	call	0x88c	; 0x88c <__fp_pscB>
     920:	20 f0       	brcs	.+8      	; 0x92a <__mulsf3+0x1c>
     922:	95 23       	and	r25, r21
     924:	11 f0       	breq	.+4      	; 0x92a <__mulsf3+0x1c>
     926:	0c 94 36 04 	jmp	0x86c	; 0x86c <__fp_inf>
     92a:	0c 94 3c 04 	jmp	0x878	; 0x878 <__fp_nan>
     92e:	11 24       	eor	r1, r1
     930:	0c 94 81 04 	jmp	0x902	; 0x902 <__fp_szero>

00000934 <__mulsf3x>:
     934:	0e 94 5e 04 	call	0x8bc	; 0x8bc <__fp_split3>
     938:	70 f3       	brcs	.-36     	; 0x916 <__mulsf3+0x8>

0000093a <__mulsf3_pse>:
     93a:	95 9f       	mul	r25, r21
     93c:	c1 f3       	breq	.-16     	; 0x92e <__mulsf3+0x20>
     93e:	95 0f       	add	r25, r21
     940:	50 e0       	ldi	r21, 0x00	; 0
     942:	55 1f       	adc	r21, r21
     944:	62 9f       	mul	r22, r18
     946:	f0 01       	movw	r30, r0
     948:	72 9f       	mul	r23, r18
     94a:	bb 27       	eor	r27, r27
     94c:	f0 0d       	add	r31, r0
     94e:	b1 1d       	adc	r27, r1
     950:	63 9f       	mul	r22, r19
     952:	aa 27       	eor	r26, r26
     954:	f0 0d       	add	r31, r0
     956:	b1 1d       	adc	r27, r1
     958:	aa 1f       	adc	r26, r26
     95a:	64 9f       	mul	r22, r20
     95c:	66 27       	eor	r22, r22
     95e:	b0 0d       	add	r27, r0
     960:	a1 1d       	adc	r26, r1
     962:	66 1f       	adc	r22, r22
     964:	82 9f       	mul	r24, r18
     966:	22 27       	eor	r18, r18
     968:	b0 0d       	add	r27, r0
     96a:	a1 1d       	adc	r26, r1
     96c:	62 1f       	adc	r22, r18
     96e:	73 9f       	mul	r23, r19
     970:	b0 0d       	add	r27, r0
     972:	a1 1d       	adc	r26, r1
     974:	62 1f       	adc	r22, r18
     976:	83 9f       	mul	r24, r19
     978:	a0 0d       	add	r26, r0
     97a:	61 1d       	adc	r22, r1
     97c:	22 1f       	adc	r18, r18
     97e:	74 9f       	mul	r23, r20
     980:	33 27       	eor	r19, r19
     982:	a0 0d       	add	r26, r0
     984:	61 1d       	adc	r22, r1
     986:	23 1f       	adc	r18, r19
     988:	84 9f       	mul	r24, r20
     98a:	60 0d       	add	r22, r0
     98c:	21 1d       	adc	r18, r1
     98e:	82 2f       	mov	r24, r18
     990:	76 2f       	mov	r23, r22
     992:	6a 2f       	mov	r22, r26
     994:	11 24       	eor	r1, r1
     996:	9f 57       	subi	r25, 0x7F	; 127
     998:	50 40       	sbci	r21, 0x00	; 0
     99a:	9a f0       	brmi	.+38     	; 0x9c2 <__mulsf3_pse+0x88>
     99c:	f1 f0       	breq	.+60     	; 0x9da <__mulsf3_pse+0xa0>
     99e:	88 23       	and	r24, r24
     9a0:	4a f0       	brmi	.+18     	; 0x9b4 <__mulsf3_pse+0x7a>
     9a2:	ee 0f       	add	r30, r30
     9a4:	ff 1f       	adc	r31, r31
     9a6:	bb 1f       	adc	r27, r27
     9a8:	66 1f       	adc	r22, r22
     9aa:	77 1f       	adc	r23, r23
     9ac:	88 1f       	adc	r24, r24
     9ae:	91 50       	subi	r25, 0x01	; 1
     9b0:	50 40       	sbci	r21, 0x00	; 0
     9b2:	a9 f7       	brne	.-22     	; 0x99e <__mulsf3_pse+0x64>
     9b4:	9e 3f       	cpi	r25, 0xFE	; 254
     9b6:	51 05       	cpc	r21, r1
     9b8:	80 f0       	brcs	.+32     	; 0x9da <__mulsf3_pse+0xa0>
     9ba:	0c 94 36 04 	jmp	0x86c	; 0x86c <__fp_inf>
     9be:	0c 94 81 04 	jmp	0x902	; 0x902 <__fp_szero>
     9c2:	5f 3f       	cpi	r21, 0xFF	; 255
     9c4:	e4 f3       	brlt	.-8      	; 0x9be <__mulsf3_pse+0x84>
     9c6:	98 3e       	cpi	r25, 0xE8	; 232
     9c8:	d4 f3       	brlt	.-12     	; 0x9be <__mulsf3_pse+0x84>
     9ca:	86 95       	lsr	r24
     9cc:	77 95       	ror	r23
     9ce:	67 95       	ror	r22
     9d0:	b7 95       	ror	r27
     9d2:	f7 95       	ror	r31
     9d4:	e7 95       	ror	r30
     9d6:	9f 5f       	subi	r25, 0xFF	; 255
     9d8:	c1 f7       	brne	.-16     	; 0x9ca <__mulsf3_pse+0x90>
     9da:	fe 2b       	or	r31, r30
     9dc:	88 0f       	add	r24, r24
     9de:	91 1d       	adc	r25, r1
     9e0:	96 95       	lsr	r25
     9e2:	87 95       	ror	r24
     9e4:	97 f9       	bld	r25, 7
     9e6:	08 95       	ret

000009e8 <vfprintf>:
     9e8:	a0 e1       	ldi	r26, 0x10	; 16
     9ea:	b0 e0       	ldi	r27, 0x00	; 0
     9ec:	ea ef       	ldi	r30, 0xFA	; 250
     9ee:	f4 e0       	ldi	r31, 0x04	; 4
     9f0:	0c 94 94 08 	jmp	0x1128	; 0x1128 <__prologue_saves__>
     9f4:	7c 01       	movw	r14, r24
     9f6:	1b 01       	movw	r2, r22
     9f8:	6a 01       	movw	r12, r20
     9fa:	fc 01       	movw	r30, r24
     9fc:	17 82       	std	Z+7, r1	; 0x07
     9fe:	16 82       	std	Z+6, r1	; 0x06
     a00:	83 81       	ldd	r24, Z+3	; 0x03
     a02:	81 ff       	sbrs	r24, 1
     a04:	44 c3       	rjmp	.+1672   	; 0x108e <vfprintf+0x6a6>
     a06:	9e 01       	movw	r18, r28
     a08:	2f 5f       	subi	r18, 0xFF	; 255
     a0a:	3f 4f       	sbci	r19, 0xFF	; 255
     a0c:	39 01       	movw	r6, r18
     a0e:	f7 01       	movw	r30, r14
     a10:	93 81       	ldd	r25, Z+3	; 0x03
     a12:	f1 01       	movw	r30, r2
     a14:	93 fd       	sbrc	r25, 3
     a16:	85 91       	lpm	r24, Z+
     a18:	93 ff       	sbrs	r25, 3
     a1a:	81 91       	ld	r24, Z+
     a1c:	1f 01       	movw	r2, r30
     a1e:	88 23       	and	r24, r24
     a20:	09 f4       	brne	.+2      	; 0xa24 <vfprintf+0x3c>
     a22:	31 c3       	rjmp	.+1634   	; 0x1086 <vfprintf+0x69e>
     a24:	85 32       	cpi	r24, 0x25	; 37
     a26:	39 f4       	brne	.+14     	; 0xa36 <vfprintf+0x4e>
     a28:	93 fd       	sbrc	r25, 3
     a2a:	85 91       	lpm	r24, Z+
     a2c:	93 ff       	sbrs	r25, 3
     a2e:	81 91       	ld	r24, Z+
     a30:	1f 01       	movw	r2, r30
     a32:	85 32       	cpi	r24, 0x25	; 37
     a34:	39 f4       	brne	.+14     	; 0xa44 <vfprintf+0x5c>
     a36:	b7 01       	movw	r22, r14
     a38:	90 e0       	ldi	r25, 0x00	; 0
     a3a:	0e 94 c8 09 	call	0x1390	; 0x1390 <fputc>
     a3e:	56 01       	movw	r10, r12
     a40:	65 01       	movw	r12, r10
     a42:	e5 cf       	rjmp	.-54     	; 0xa0e <vfprintf+0x26>
     a44:	10 e0       	ldi	r17, 0x00	; 0
     a46:	51 2c       	mov	r5, r1
     a48:	91 2c       	mov	r9, r1
     a4a:	ff e1       	ldi	r31, 0x1F	; 31
     a4c:	f9 15       	cp	r31, r9
     a4e:	d8 f0       	brcs	.+54     	; 0xa86 <vfprintf+0x9e>
     a50:	8b 32       	cpi	r24, 0x2B	; 43
     a52:	79 f0       	breq	.+30     	; 0xa72 <vfprintf+0x8a>
     a54:	38 f4       	brcc	.+14     	; 0xa64 <vfprintf+0x7c>
     a56:	80 32       	cpi	r24, 0x20	; 32
     a58:	79 f0       	breq	.+30     	; 0xa78 <vfprintf+0x90>
     a5a:	83 32       	cpi	r24, 0x23	; 35
     a5c:	a1 f4       	brne	.+40     	; 0xa86 <vfprintf+0x9e>
     a5e:	f9 2d       	mov	r31, r9
     a60:	f0 61       	ori	r31, 0x10	; 16
     a62:	2e c0       	rjmp	.+92     	; 0xac0 <vfprintf+0xd8>
     a64:	8d 32       	cpi	r24, 0x2D	; 45
     a66:	61 f0       	breq	.+24     	; 0xa80 <vfprintf+0x98>
     a68:	80 33       	cpi	r24, 0x30	; 48
     a6a:	69 f4       	brne	.+26     	; 0xa86 <vfprintf+0x9e>
     a6c:	29 2d       	mov	r18, r9
     a6e:	21 60       	ori	r18, 0x01	; 1
     a70:	2d c0       	rjmp	.+90     	; 0xacc <vfprintf+0xe4>
     a72:	39 2d       	mov	r19, r9
     a74:	32 60       	ori	r19, 0x02	; 2
     a76:	93 2e       	mov	r9, r19
     a78:	89 2d       	mov	r24, r9
     a7a:	84 60       	ori	r24, 0x04	; 4
     a7c:	98 2e       	mov	r9, r24
     a7e:	2a c0       	rjmp	.+84     	; 0xad4 <vfprintf+0xec>
     a80:	e9 2d       	mov	r30, r9
     a82:	e8 60       	ori	r30, 0x08	; 8
     a84:	15 c0       	rjmp	.+42     	; 0xab0 <vfprintf+0xc8>
     a86:	97 fc       	sbrc	r9, 7
     a88:	2d c0       	rjmp	.+90     	; 0xae4 <vfprintf+0xfc>
     a8a:	20 ed       	ldi	r18, 0xD0	; 208
     a8c:	28 0f       	add	r18, r24
     a8e:	2a 30       	cpi	r18, 0x0A	; 10
     a90:	88 f4       	brcc	.+34     	; 0xab4 <vfprintf+0xcc>
     a92:	96 fe       	sbrs	r9, 6
     a94:	06 c0       	rjmp	.+12     	; 0xaa2 <vfprintf+0xba>
     a96:	3a e0       	ldi	r19, 0x0A	; 10
     a98:	13 9f       	mul	r17, r19
     a9a:	20 0d       	add	r18, r0
     a9c:	11 24       	eor	r1, r1
     a9e:	12 2f       	mov	r17, r18
     aa0:	19 c0       	rjmp	.+50     	; 0xad4 <vfprintf+0xec>
     aa2:	8a e0       	ldi	r24, 0x0A	; 10
     aa4:	58 9e       	mul	r5, r24
     aa6:	20 0d       	add	r18, r0
     aa8:	11 24       	eor	r1, r1
     aaa:	52 2e       	mov	r5, r18
     aac:	e9 2d       	mov	r30, r9
     aae:	e0 62       	ori	r30, 0x20	; 32
     ab0:	9e 2e       	mov	r9, r30
     ab2:	10 c0       	rjmp	.+32     	; 0xad4 <vfprintf+0xec>
     ab4:	8e 32       	cpi	r24, 0x2E	; 46
     ab6:	31 f4       	brne	.+12     	; 0xac4 <vfprintf+0xdc>
     ab8:	96 fc       	sbrc	r9, 6
     aba:	e5 c2       	rjmp	.+1482   	; 0x1086 <vfprintf+0x69e>
     abc:	f9 2d       	mov	r31, r9
     abe:	f0 64       	ori	r31, 0x40	; 64
     ac0:	9f 2e       	mov	r9, r31
     ac2:	08 c0       	rjmp	.+16     	; 0xad4 <vfprintf+0xec>
     ac4:	8c 36       	cpi	r24, 0x6C	; 108
     ac6:	21 f4       	brne	.+8      	; 0xad0 <vfprintf+0xe8>
     ac8:	29 2d       	mov	r18, r9
     aca:	20 68       	ori	r18, 0x80	; 128
     acc:	92 2e       	mov	r9, r18
     ace:	02 c0       	rjmp	.+4      	; 0xad4 <vfprintf+0xec>
     ad0:	88 36       	cpi	r24, 0x68	; 104
     ad2:	41 f4       	brne	.+16     	; 0xae4 <vfprintf+0xfc>
     ad4:	f1 01       	movw	r30, r2
     ad6:	93 fd       	sbrc	r25, 3
     ad8:	85 91       	lpm	r24, Z+
     ada:	93 ff       	sbrs	r25, 3
     adc:	81 91       	ld	r24, Z+
     ade:	1f 01       	movw	r2, r30
     ae0:	81 11       	cpse	r24, r1
     ae2:	b3 cf       	rjmp	.-154    	; 0xa4a <vfprintf+0x62>
     ae4:	9b eb       	ldi	r25, 0xBB	; 187
     ae6:	98 0f       	add	r25, r24
     ae8:	93 30       	cpi	r25, 0x03	; 3
     aea:	20 f4       	brcc	.+8      	; 0xaf4 <vfprintf+0x10c>
     aec:	99 2d       	mov	r25, r9
     aee:	90 61       	ori	r25, 0x10	; 16
     af0:	80 5e       	subi	r24, 0xE0	; 224
     af2:	07 c0       	rjmp	.+14     	; 0xb02 <vfprintf+0x11a>
     af4:	9b e9       	ldi	r25, 0x9B	; 155
     af6:	98 0f       	add	r25, r24
     af8:	93 30       	cpi	r25, 0x03	; 3
     afa:	08 f0       	brcs	.+2      	; 0xafe <vfprintf+0x116>
     afc:	66 c1       	rjmp	.+716    	; 0xdca <vfprintf+0x3e2>
     afe:	99 2d       	mov	r25, r9
     b00:	9f 7e       	andi	r25, 0xEF	; 239
     b02:	96 ff       	sbrs	r25, 6
     b04:	16 e0       	ldi	r17, 0x06	; 6
     b06:	9f 73       	andi	r25, 0x3F	; 63
     b08:	99 2e       	mov	r9, r25
     b0a:	85 36       	cpi	r24, 0x65	; 101
     b0c:	19 f4       	brne	.+6      	; 0xb14 <vfprintf+0x12c>
     b0e:	90 64       	ori	r25, 0x40	; 64
     b10:	99 2e       	mov	r9, r25
     b12:	08 c0       	rjmp	.+16     	; 0xb24 <vfprintf+0x13c>
     b14:	86 36       	cpi	r24, 0x66	; 102
     b16:	21 f4       	brne	.+8      	; 0xb20 <vfprintf+0x138>
     b18:	39 2f       	mov	r19, r25
     b1a:	30 68       	ori	r19, 0x80	; 128
     b1c:	93 2e       	mov	r9, r19
     b1e:	02 c0       	rjmp	.+4      	; 0xb24 <vfprintf+0x13c>
     b20:	11 11       	cpse	r17, r1
     b22:	11 50       	subi	r17, 0x01	; 1
     b24:	97 fe       	sbrs	r9, 7
     b26:	07 c0       	rjmp	.+14     	; 0xb36 <vfprintf+0x14e>
     b28:	1c 33       	cpi	r17, 0x3C	; 60
     b2a:	50 f4       	brcc	.+20     	; 0xb40 <vfprintf+0x158>
     b2c:	44 24       	eor	r4, r4
     b2e:	43 94       	inc	r4
     b30:	41 0e       	add	r4, r17
     b32:	27 e0       	ldi	r18, 0x07	; 7
     b34:	0b c0       	rjmp	.+22     	; 0xb4c <vfprintf+0x164>
     b36:	18 30       	cpi	r17, 0x08	; 8
     b38:	38 f0       	brcs	.+14     	; 0xb48 <vfprintf+0x160>
     b3a:	27 e0       	ldi	r18, 0x07	; 7
     b3c:	17 e0       	ldi	r17, 0x07	; 7
     b3e:	05 c0       	rjmp	.+10     	; 0xb4a <vfprintf+0x162>
     b40:	27 e0       	ldi	r18, 0x07	; 7
     b42:	9c e3       	ldi	r25, 0x3C	; 60
     b44:	49 2e       	mov	r4, r25
     b46:	02 c0       	rjmp	.+4      	; 0xb4c <vfprintf+0x164>
     b48:	21 2f       	mov	r18, r17
     b4a:	41 2c       	mov	r4, r1
     b4c:	56 01       	movw	r10, r12
     b4e:	84 e0       	ldi	r24, 0x04	; 4
     b50:	a8 0e       	add	r10, r24
     b52:	b1 1c       	adc	r11, r1
     b54:	f6 01       	movw	r30, r12
     b56:	60 81       	ld	r22, Z
     b58:	71 81       	ldd	r23, Z+1	; 0x01
     b5a:	82 81       	ldd	r24, Z+2	; 0x02
     b5c:	93 81       	ldd	r25, Z+3	; 0x03
     b5e:	04 2d       	mov	r16, r4
     b60:	a3 01       	movw	r20, r6
     b62:	0e 94 da 08 	call	0x11b4	; 0x11b4 <__ftoa_engine>
     b66:	6c 01       	movw	r12, r24
     b68:	f9 81       	ldd	r31, Y+1	; 0x01
     b6a:	fc 87       	std	Y+12, r31	; 0x0c
     b6c:	f0 ff       	sbrs	r31, 0
     b6e:	02 c0       	rjmp	.+4      	; 0xb74 <vfprintf+0x18c>
     b70:	f3 ff       	sbrs	r31, 3
     b72:	06 c0       	rjmp	.+12     	; 0xb80 <vfprintf+0x198>
     b74:	91 fc       	sbrc	r9, 1
     b76:	06 c0       	rjmp	.+12     	; 0xb84 <vfprintf+0x19c>
     b78:	92 fe       	sbrs	r9, 2
     b7a:	06 c0       	rjmp	.+12     	; 0xb88 <vfprintf+0x1a0>
     b7c:	00 e2       	ldi	r16, 0x20	; 32
     b7e:	05 c0       	rjmp	.+10     	; 0xb8a <vfprintf+0x1a2>
     b80:	0d e2       	ldi	r16, 0x2D	; 45
     b82:	03 c0       	rjmp	.+6      	; 0xb8a <vfprintf+0x1a2>
     b84:	0b e2       	ldi	r16, 0x2B	; 43
     b86:	01 c0       	rjmp	.+2      	; 0xb8a <vfprintf+0x1a2>
     b88:	00 e0       	ldi	r16, 0x00	; 0
     b8a:	8c 85       	ldd	r24, Y+12	; 0x0c
     b8c:	8c 70       	andi	r24, 0x0C	; 12
     b8e:	19 f0       	breq	.+6      	; 0xb96 <vfprintf+0x1ae>
     b90:	01 11       	cpse	r16, r1
     b92:	5a c2       	rjmp	.+1204   	; 0x1048 <vfprintf+0x660>
     b94:	9b c2       	rjmp	.+1334   	; 0x10cc <vfprintf+0x6e4>
     b96:	97 fe       	sbrs	r9, 7
     b98:	10 c0       	rjmp	.+32     	; 0xbba <vfprintf+0x1d2>
     b9a:	4c 0c       	add	r4, r12
     b9c:	fc 85       	ldd	r31, Y+12	; 0x0c
     b9e:	f4 ff       	sbrs	r31, 4
     ba0:	04 c0       	rjmp	.+8      	; 0xbaa <vfprintf+0x1c2>
     ba2:	8a 81       	ldd	r24, Y+2	; 0x02
     ba4:	81 33       	cpi	r24, 0x31	; 49
     ba6:	09 f4       	brne	.+2      	; 0xbaa <vfprintf+0x1c2>
     ba8:	4a 94       	dec	r4
     baa:	14 14       	cp	r1, r4
     bac:	74 f5       	brge	.+92     	; 0xc0a <vfprintf+0x222>
     bae:	28 e0       	ldi	r18, 0x08	; 8
     bb0:	24 15       	cp	r18, r4
     bb2:	78 f5       	brcc	.+94     	; 0xc12 <vfprintf+0x22a>
     bb4:	88 e0       	ldi	r24, 0x08	; 8
     bb6:	48 2e       	mov	r4, r24
     bb8:	2c c0       	rjmp	.+88     	; 0xc12 <vfprintf+0x22a>
     bba:	96 fc       	sbrc	r9, 6
     bbc:	2a c0       	rjmp	.+84     	; 0xc12 <vfprintf+0x22a>
     bbe:	81 2f       	mov	r24, r17
     bc0:	90 e0       	ldi	r25, 0x00	; 0
     bc2:	8c 15       	cp	r24, r12
     bc4:	9d 05       	cpc	r25, r13
     bc6:	9c f0       	brlt	.+38     	; 0xbee <vfprintf+0x206>
     bc8:	3c ef       	ldi	r19, 0xFC	; 252
     bca:	c3 16       	cp	r12, r19
     bcc:	3f ef       	ldi	r19, 0xFF	; 255
     bce:	d3 06       	cpc	r13, r19
     bd0:	74 f0       	brlt	.+28     	; 0xbee <vfprintf+0x206>
     bd2:	89 2d       	mov	r24, r9
     bd4:	80 68       	ori	r24, 0x80	; 128
     bd6:	98 2e       	mov	r9, r24
     bd8:	0a c0       	rjmp	.+20     	; 0xbee <vfprintf+0x206>
     bda:	e2 e0       	ldi	r30, 0x02	; 2
     bdc:	f0 e0       	ldi	r31, 0x00	; 0
     bde:	ec 0f       	add	r30, r28
     be0:	fd 1f       	adc	r31, r29
     be2:	e1 0f       	add	r30, r17
     be4:	f1 1d       	adc	r31, r1
     be6:	80 81       	ld	r24, Z
     be8:	80 33       	cpi	r24, 0x30	; 48
     bea:	19 f4       	brne	.+6      	; 0xbf2 <vfprintf+0x20a>
     bec:	11 50       	subi	r17, 0x01	; 1
     bee:	11 11       	cpse	r17, r1
     bf0:	f4 cf       	rjmp	.-24     	; 0xbda <vfprintf+0x1f2>
     bf2:	97 fe       	sbrs	r9, 7
     bf4:	0e c0       	rjmp	.+28     	; 0xc12 <vfprintf+0x22a>
     bf6:	44 24       	eor	r4, r4
     bf8:	43 94       	inc	r4
     bfa:	41 0e       	add	r4, r17
     bfc:	81 2f       	mov	r24, r17
     bfe:	90 e0       	ldi	r25, 0x00	; 0
     c00:	c8 16       	cp	r12, r24
     c02:	d9 06       	cpc	r13, r25
     c04:	2c f4       	brge	.+10     	; 0xc10 <vfprintf+0x228>
     c06:	1c 19       	sub	r17, r12
     c08:	04 c0       	rjmp	.+8      	; 0xc12 <vfprintf+0x22a>
     c0a:	44 24       	eor	r4, r4
     c0c:	43 94       	inc	r4
     c0e:	01 c0       	rjmp	.+2      	; 0xc12 <vfprintf+0x22a>
     c10:	10 e0       	ldi	r17, 0x00	; 0
     c12:	97 fe       	sbrs	r9, 7
     c14:	06 c0       	rjmp	.+12     	; 0xc22 <vfprintf+0x23a>
     c16:	1c 14       	cp	r1, r12
     c18:	1d 04       	cpc	r1, r13
     c1a:	34 f4       	brge	.+12     	; 0xc28 <vfprintf+0x240>
     c1c:	c6 01       	movw	r24, r12
     c1e:	01 96       	adiw	r24, 0x01	; 1
     c20:	05 c0       	rjmp	.+10     	; 0xc2c <vfprintf+0x244>
     c22:	85 e0       	ldi	r24, 0x05	; 5
     c24:	90 e0       	ldi	r25, 0x00	; 0
     c26:	02 c0       	rjmp	.+4      	; 0xc2c <vfprintf+0x244>
     c28:	81 e0       	ldi	r24, 0x01	; 1
     c2a:	90 e0       	ldi	r25, 0x00	; 0
     c2c:	01 11       	cpse	r16, r1
     c2e:	01 96       	adiw	r24, 0x01	; 1
     c30:	11 23       	and	r17, r17
     c32:	31 f0       	breq	.+12     	; 0xc40 <vfprintf+0x258>
     c34:	21 2f       	mov	r18, r17
     c36:	30 e0       	ldi	r19, 0x00	; 0
     c38:	2f 5f       	subi	r18, 0xFF	; 255
     c3a:	3f 4f       	sbci	r19, 0xFF	; 255
     c3c:	82 0f       	add	r24, r18
     c3e:	93 1f       	adc	r25, r19
     c40:	25 2d       	mov	r18, r5
     c42:	30 e0       	ldi	r19, 0x00	; 0
     c44:	82 17       	cp	r24, r18
     c46:	93 07       	cpc	r25, r19
     c48:	14 f4       	brge	.+4      	; 0xc4e <vfprintf+0x266>
     c4a:	58 1a       	sub	r5, r24
     c4c:	01 c0       	rjmp	.+2      	; 0xc50 <vfprintf+0x268>
     c4e:	51 2c       	mov	r5, r1
     c50:	89 2d       	mov	r24, r9
     c52:	89 70       	andi	r24, 0x09	; 9
     c54:	49 f4       	brne	.+18     	; 0xc68 <vfprintf+0x280>
     c56:	55 20       	and	r5, r5
     c58:	39 f0       	breq	.+14     	; 0xc68 <vfprintf+0x280>
     c5a:	b7 01       	movw	r22, r14
     c5c:	80 e2       	ldi	r24, 0x20	; 32
     c5e:	90 e0       	ldi	r25, 0x00	; 0
     c60:	0e 94 c8 09 	call	0x1390	; 0x1390 <fputc>
     c64:	5a 94       	dec	r5
     c66:	f7 cf       	rjmp	.-18     	; 0xc56 <vfprintf+0x26e>
     c68:	00 23       	and	r16, r16
     c6a:	29 f0       	breq	.+10     	; 0xc76 <vfprintf+0x28e>
     c6c:	b7 01       	movw	r22, r14
     c6e:	80 2f       	mov	r24, r16
     c70:	90 e0       	ldi	r25, 0x00	; 0
     c72:	0e 94 c8 09 	call	0x1390	; 0x1390 <fputc>
     c76:	93 fc       	sbrc	r9, 3
     c78:	09 c0       	rjmp	.+18     	; 0xc8c <vfprintf+0x2a4>
     c7a:	55 20       	and	r5, r5
     c7c:	39 f0       	breq	.+14     	; 0xc8c <vfprintf+0x2a4>
     c7e:	b7 01       	movw	r22, r14
     c80:	80 e3       	ldi	r24, 0x30	; 48
     c82:	90 e0       	ldi	r25, 0x00	; 0
     c84:	0e 94 c8 09 	call	0x1390	; 0x1390 <fputc>
     c88:	5a 94       	dec	r5
     c8a:	f7 cf       	rjmp	.-18     	; 0xc7a <vfprintf+0x292>
     c8c:	97 fe       	sbrs	r9, 7
     c8e:	4c c0       	rjmp	.+152    	; 0xd28 <vfprintf+0x340>
     c90:	46 01       	movw	r8, r12
     c92:	d7 fe       	sbrs	r13, 7
     c94:	02 c0       	rjmp	.+4      	; 0xc9a <vfprintf+0x2b2>
     c96:	81 2c       	mov	r8, r1
     c98:	91 2c       	mov	r9, r1
     c9a:	c6 01       	movw	r24, r12
     c9c:	88 19       	sub	r24, r8
     c9e:	99 09       	sbc	r25, r9
     ca0:	f3 01       	movw	r30, r6
     ca2:	e8 0f       	add	r30, r24
     ca4:	f9 1f       	adc	r31, r25
     ca6:	fe 87       	std	Y+14, r31	; 0x0e
     ca8:	ed 87       	std	Y+13, r30	; 0x0d
     caa:	96 01       	movw	r18, r12
     cac:	24 19       	sub	r18, r4
     cae:	31 09       	sbc	r19, r1
     cb0:	38 8b       	std	Y+16, r19	; 0x10
     cb2:	2f 87       	std	Y+15, r18	; 0x0f
     cb4:	01 2f       	mov	r16, r17
     cb6:	10 e0       	ldi	r17, 0x00	; 0
     cb8:	11 95       	neg	r17
     cba:	01 95       	neg	r16
     cbc:	11 09       	sbc	r17, r1
     cbe:	3f ef       	ldi	r19, 0xFF	; 255
     cc0:	83 16       	cp	r8, r19
     cc2:	93 06       	cpc	r9, r19
     cc4:	29 f4       	brne	.+10     	; 0xcd0 <vfprintf+0x2e8>
     cc6:	b7 01       	movw	r22, r14
     cc8:	8e e2       	ldi	r24, 0x2E	; 46
     cca:	90 e0       	ldi	r25, 0x00	; 0
     ccc:	0e 94 c8 09 	call	0x1390	; 0x1390 <fputc>
     cd0:	c8 14       	cp	r12, r8
     cd2:	d9 04       	cpc	r13, r9
     cd4:	4c f0       	brlt	.+18     	; 0xce8 <vfprintf+0x300>
     cd6:	8f 85       	ldd	r24, Y+15	; 0x0f
     cd8:	98 89       	ldd	r25, Y+16	; 0x10
     cda:	88 15       	cp	r24, r8
     cdc:	99 05       	cpc	r25, r9
     cde:	24 f4       	brge	.+8      	; 0xce8 <vfprintf+0x300>
     ce0:	ed 85       	ldd	r30, Y+13	; 0x0d
     ce2:	fe 85       	ldd	r31, Y+14	; 0x0e
     ce4:	81 81       	ldd	r24, Z+1	; 0x01
     ce6:	01 c0       	rjmp	.+2      	; 0xcea <vfprintf+0x302>
     ce8:	80 e3       	ldi	r24, 0x30	; 48
     cea:	f1 e0       	ldi	r31, 0x01	; 1
     cec:	8f 1a       	sub	r8, r31
     cee:	91 08       	sbc	r9, r1
     cf0:	2d 85       	ldd	r18, Y+13	; 0x0d
     cf2:	3e 85       	ldd	r19, Y+14	; 0x0e
     cf4:	2f 5f       	subi	r18, 0xFF	; 255
     cf6:	3f 4f       	sbci	r19, 0xFF	; 255
     cf8:	3e 87       	std	Y+14, r19	; 0x0e
     cfa:	2d 87       	std	Y+13, r18	; 0x0d
     cfc:	80 16       	cp	r8, r16
     cfe:	91 06       	cpc	r9, r17
     d00:	2c f0       	brlt	.+10     	; 0xd0c <vfprintf+0x324>
     d02:	b7 01       	movw	r22, r14
     d04:	90 e0       	ldi	r25, 0x00	; 0
     d06:	0e 94 c8 09 	call	0x1390	; 0x1390 <fputc>
     d0a:	d9 cf       	rjmp	.-78     	; 0xcbe <vfprintf+0x2d6>
     d0c:	c8 14       	cp	r12, r8
     d0e:	d9 04       	cpc	r13, r9
     d10:	41 f4       	brne	.+16     	; 0xd22 <vfprintf+0x33a>
     d12:	9a 81       	ldd	r25, Y+2	; 0x02
     d14:	96 33       	cpi	r25, 0x36	; 54
     d16:	20 f4       	brcc	.+8      	; 0xd20 <vfprintf+0x338>
     d18:	95 33       	cpi	r25, 0x35	; 53
     d1a:	19 f4       	brne	.+6      	; 0xd22 <vfprintf+0x33a>
     d1c:	3c 85       	ldd	r19, Y+12	; 0x0c
     d1e:	34 ff       	sbrs	r19, 4
     d20:	81 e3       	ldi	r24, 0x31	; 49
     d22:	b7 01       	movw	r22, r14
     d24:	90 e0       	ldi	r25, 0x00	; 0
     d26:	4e c0       	rjmp	.+156    	; 0xdc4 <vfprintf+0x3dc>
     d28:	8a 81       	ldd	r24, Y+2	; 0x02
     d2a:	81 33       	cpi	r24, 0x31	; 49
     d2c:	19 f0       	breq	.+6      	; 0xd34 <vfprintf+0x34c>
     d2e:	9c 85       	ldd	r25, Y+12	; 0x0c
     d30:	9f 7e       	andi	r25, 0xEF	; 239
     d32:	9c 87       	std	Y+12, r25	; 0x0c
     d34:	b7 01       	movw	r22, r14
     d36:	90 e0       	ldi	r25, 0x00	; 0
     d38:	0e 94 c8 09 	call	0x1390	; 0x1390 <fputc>
     d3c:	11 11       	cpse	r17, r1
     d3e:	05 c0       	rjmp	.+10     	; 0xd4a <vfprintf+0x362>
     d40:	94 fc       	sbrc	r9, 4
     d42:	18 c0       	rjmp	.+48     	; 0xd74 <vfprintf+0x38c>
     d44:	85 e6       	ldi	r24, 0x65	; 101
     d46:	90 e0       	ldi	r25, 0x00	; 0
     d48:	17 c0       	rjmp	.+46     	; 0xd78 <vfprintf+0x390>
     d4a:	b7 01       	movw	r22, r14
     d4c:	8e e2       	ldi	r24, 0x2E	; 46
     d4e:	90 e0       	ldi	r25, 0x00	; 0
     d50:	0e 94 c8 09 	call	0x1390	; 0x1390 <fputc>
     d54:	1e 5f       	subi	r17, 0xFE	; 254
     d56:	82 e0       	ldi	r24, 0x02	; 2
     d58:	01 e0       	ldi	r16, 0x01	; 1
     d5a:	08 0f       	add	r16, r24
     d5c:	f3 01       	movw	r30, r6
     d5e:	e8 0f       	add	r30, r24
     d60:	f1 1d       	adc	r31, r1
     d62:	80 81       	ld	r24, Z
     d64:	b7 01       	movw	r22, r14
     d66:	90 e0       	ldi	r25, 0x00	; 0
     d68:	0e 94 c8 09 	call	0x1390	; 0x1390 <fputc>
     d6c:	80 2f       	mov	r24, r16
     d6e:	01 13       	cpse	r16, r17
     d70:	f3 cf       	rjmp	.-26     	; 0xd58 <vfprintf+0x370>
     d72:	e6 cf       	rjmp	.-52     	; 0xd40 <vfprintf+0x358>
     d74:	85 e4       	ldi	r24, 0x45	; 69
     d76:	90 e0       	ldi	r25, 0x00	; 0
     d78:	b7 01       	movw	r22, r14
     d7a:	0e 94 c8 09 	call	0x1390	; 0x1390 <fputc>
     d7e:	d7 fc       	sbrc	r13, 7
     d80:	06 c0       	rjmp	.+12     	; 0xd8e <vfprintf+0x3a6>
     d82:	c1 14       	cp	r12, r1
     d84:	d1 04       	cpc	r13, r1
     d86:	41 f4       	brne	.+16     	; 0xd98 <vfprintf+0x3b0>
     d88:	ec 85       	ldd	r30, Y+12	; 0x0c
     d8a:	e4 ff       	sbrs	r30, 4
     d8c:	05 c0       	rjmp	.+10     	; 0xd98 <vfprintf+0x3b0>
     d8e:	d1 94       	neg	r13
     d90:	c1 94       	neg	r12
     d92:	d1 08       	sbc	r13, r1
     d94:	8d e2       	ldi	r24, 0x2D	; 45
     d96:	01 c0       	rjmp	.+2      	; 0xd9a <vfprintf+0x3b2>
     d98:	8b e2       	ldi	r24, 0x2B	; 43
     d9a:	b7 01       	movw	r22, r14
     d9c:	90 e0       	ldi	r25, 0x00	; 0
     d9e:	0e 94 c8 09 	call	0x1390	; 0x1390 <fputc>
     da2:	80 e3       	ldi	r24, 0x30	; 48
     da4:	2a e0       	ldi	r18, 0x0A	; 10
     da6:	c2 16       	cp	r12, r18
     da8:	d1 04       	cpc	r13, r1
     daa:	2c f0       	brlt	.+10     	; 0xdb6 <vfprintf+0x3ce>
     dac:	8f 5f       	subi	r24, 0xFF	; 255
     dae:	fa e0       	ldi	r31, 0x0A	; 10
     db0:	cf 1a       	sub	r12, r31
     db2:	d1 08       	sbc	r13, r1
     db4:	f7 cf       	rjmp	.-18     	; 0xda4 <vfprintf+0x3bc>
     db6:	b7 01       	movw	r22, r14
     db8:	90 e0       	ldi	r25, 0x00	; 0
     dba:	0e 94 c8 09 	call	0x1390	; 0x1390 <fputc>
     dbe:	b7 01       	movw	r22, r14
     dc0:	c6 01       	movw	r24, r12
     dc2:	c0 96       	adiw	r24, 0x30	; 48
     dc4:	0e 94 c8 09 	call	0x1390	; 0x1390 <fputc>
     dc8:	54 c1       	rjmp	.+680    	; 0x1072 <vfprintf+0x68a>
     dca:	83 36       	cpi	r24, 0x63	; 99
     dcc:	31 f0       	breq	.+12     	; 0xdda <vfprintf+0x3f2>
     dce:	83 37       	cpi	r24, 0x73	; 115
     dd0:	79 f0       	breq	.+30     	; 0xdf0 <vfprintf+0x408>
     dd2:	83 35       	cpi	r24, 0x53	; 83
     dd4:	09 f0       	breq	.+2      	; 0xdd8 <vfprintf+0x3f0>
     dd6:	56 c0       	rjmp	.+172    	; 0xe84 <vfprintf+0x49c>
     dd8:	20 c0       	rjmp	.+64     	; 0xe1a <vfprintf+0x432>
     dda:	56 01       	movw	r10, r12
     ddc:	32 e0       	ldi	r19, 0x02	; 2
     dde:	a3 0e       	add	r10, r19
     de0:	b1 1c       	adc	r11, r1
     de2:	f6 01       	movw	r30, r12
     de4:	80 81       	ld	r24, Z
     de6:	89 83       	std	Y+1, r24	; 0x01
     de8:	01 e0       	ldi	r16, 0x01	; 1
     dea:	10 e0       	ldi	r17, 0x00	; 0
     dec:	63 01       	movw	r12, r6
     dee:	12 c0       	rjmp	.+36     	; 0xe14 <vfprintf+0x42c>
     df0:	56 01       	movw	r10, r12
     df2:	f2 e0       	ldi	r31, 0x02	; 2
     df4:	af 0e       	add	r10, r31
     df6:	b1 1c       	adc	r11, r1
     df8:	f6 01       	movw	r30, r12
     dfa:	c0 80       	ld	r12, Z
     dfc:	d1 80       	ldd	r13, Z+1	; 0x01
     dfe:	96 fe       	sbrs	r9, 6
     e00:	03 c0       	rjmp	.+6      	; 0xe08 <vfprintf+0x420>
     e02:	61 2f       	mov	r22, r17
     e04:	70 e0       	ldi	r23, 0x00	; 0
     e06:	02 c0       	rjmp	.+4      	; 0xe0c <vfprintf+0x424>
     e08:	6f ef       	ldi	r22, 0xFF	; 255
     e0a:	7f ef       	ldi	r23, 0xFF	; 255
     e0c:	c6 01       	movw	r24, r12
     e0e:	0e 94 bd 09 	call	0x137a	; 0x137a <strnlen>
     e12:	8c 01       	movw	r16, r24
     e14:	f9 2d       	mov	r31, r9
     e16:	ff 77       	andi	r31, 0x7F	; 127
     e18:	14 c0       	rjmp	.+40     	; 0xe42 <vfprintf+0x45a>
     e1a:	56 01       	movw	r10, r12
     e1c:	22 e0       	ldi	r18, 0x02	; 2
     e1e:	a2 0e       	add	r10, r18
     e20:	b1 1c       	adc	r11, r1
     e22:	f6 01       	movw	r30, r12
     e24:	c0 80       	ld	r12, Z
     e26:	d1 80       	ldd	r13, Z+1	; 0x01
     e28:	96 fe       	sbrs	r9, 6
     e2a:	03 c0       	rjmp	.+6      	; 0xe32 <vfprintf+0x44a>
     e2c:	61 2f       	mov	r22, r17
     e2e:	70 e0       	ldi	r23, 0x00	; 0
     e30:	02 c0       	rjmp	.+4      	; 0xe36 <vfprintf+0x44e>
     e32:	6f ef       	ldi	r22, 0xFF	; 255
     e34:	7f ef       	ldi	r23, 0xFF	; 255
     e36:	c6 01       	movw	r24, r12
     e38:	0e 94 b2 09 	call	0x1364	; 0x1364 <strnlen_P>
     e3c:	8c 01       	movw	r16, r24
     e3e:	f9 2d       	mov	r31, r9
     e40:	f0 68       	ori	r31, 0x80	; 128
     e42:	9f 2e       	mov	r9, r31
     e44:	f3 fd       	sbrc	r31, 3
     e46:	1a c0       	rjmp	.+52     	; 0xe7c <vfprintf+0x494>
     e48:	85 2d       	mov	r24, r5
     e4a:	90 e0       	ldi	r25, 0x00	; 0
     e4c:	08 17       	cp	r16, r24
     e4e:	19 07       	cpc	r17, r25
     e50:	a8 f4       	brcc	.+42     	; 0xe7c <vfprintf+0x494>
     e52:	b7 01       	movw	r22, r14
     e54:	80 e2       	ldi	r24, 0x20	; 32
     e56:	90 e0       	ldi	r25, 0x00	; 0
     e58:	0e 94 c8 09 	call	0x1390	; 0x1390 <fputc>
     e5c:	5a 94       	dec	r5
     e5e:	f4 cf       	rjmp	.-24     	; 0xe48 <vfprintf+0x460>
     e60:	f6 01       	movw	r30, r12
     e62:	97 fc       	sbrc	r9, 7
     e64:	85 91       	lpm	r24, Z+
     e66:	97 fe       	sbrs	r9, 7
     e68:	81 91       	ld	r24, Z+
     e6a:	6f 01       	movw	r12, r30
     e6c:	b7 01       	movw	r22, r14
     e6e:	90 e0       	ldi	r25, 0x00	; 0
     e70:	0e 94 c8 09 	call	0x1390	; 0x1390 <fputc>
     e74:	51 10       	cpse	r5, r1
     e76:	5a 94       	dec	r5
     e78:	01 50       	subi	r16, 0x01	; 1
     e7a:	11 09       	sbc	r17, r1
     e7c:	01 15       	cp	r16, r1
     e7e:	11 05       	cpc	r17, r1
     e80:	79 f7       	brne	.-34     	; 0xe60 <vfprintf+0x478>
     e82:	f7 c0       	rjmp	.+494    	; 0x1072 <vfprintf+0x68a>
     e84:	84 36       	cpi	r24, 0x64	; 100
     e86:	11 f0       	breq	.+4      	; 0xe8c <vfprintf+0x4a4>
     e88:	89 36       	cpi	r24, 0x69	; 105
     e8a:	61 f5       	brne	.+88     	; 0xee4 <vfprintf+0x4fc>
     e8c:	56 01       	movw	r10, r12
     e8e:	97 fe       	sbrs	r9, 7
     e90:	09 c0       	rjmp	.+18     	; 0xea4 <vfprintf+0x4bc>
     e92:	24 e0       	ldi	r18, 0x04	; 4
     e94:	a2 0e       	add	r10, r18
     e96:	b1 1c       	adc	r11, r1
     e98:	f6 01       	movw	r30, r12
     e9a:	60 81       	ld	r22, Z
     e9c:	71 81       	ldd	r23, Z+1	; 0x01
     e9e:	82 81       	ldd	r24, Z+2	; 0x02
     ea0:	93 81       	ldd	r25, Z+3	; 0x03
     ea2:	0a c0       	rjmp	.+20     	; 0xeb8 <vfprintf+0x4d0>
     ea4:	f2 e0       	ldi	r31, 0x02	; 2
     ea6:	af 0e       	add	r10, r31
     ea8:	b1 1c       	adc	r11, r1
     eaa:	f6 01       	movw	r30, r12
     eac:	60 81       	ld	r22, Z
     eae:	71 81       	ldd	r23, Z+1	; 0x01
     eb0:	07 2e       	mov	r0, r23
     eb2:	00 0c       	add	r0, r0
     eb4:	88 0b       	sbc	r24, r24
     eb6:	99 0b       	sbc	r25, r25
     eb8:	f9 2d       	mov	r31, r9
     eba:	ff 76       	andi	r31, 0x6F	; 111
     ebc:	9f 2e       	mov	r9, r31
     ebe:	97 ff       	sbrs	r25, 7
     ec0:	09 c0       	rjmp	.+18     	; 0xed4 <vfprintf+0x4ec>
     ec2:	90 95       	com	r25
     ec4:	80 95       	com	r24
     ec6:	70 95       	com	r23
     ec8:	61 95       	neg	r22
     eca:	7f 4f       	sbci	r23, 0xFF	; 255
     ecc:	8f 4f       	sbci	r24, 0xFF	; 255
     ece:	9f 4f       	sbci	r25, 0xFF	; 255
     ed0:	f0 68       	ori	r31, 0x80	; 128
     ed2:	9f 2e       	mov	r9, r31
     ed4:	2a e0       	ldi	r18, 0x0A	; 10
     ed6:	30 e0       	ldi	r19, 0x00	; 0
     ed8:	a3 01       	movw	r20, r6
     eda:	0e 94 26 0a 	call	0x144c	; 0x144c <__ultoa_invert>
     ede:	c8 2e       	mov	r12, r24
     ee0:	c6 18       	sub	r12, r6
     ee2:	3f c0       	rjmp	.+126    	; 0xf62 <vfprintf+0x57a>
     ee4:	09 2d       	mov	r16, r9
     ee6:	85 37       	cpi	r24, 0x75	; 117
     ee8:	21 f4       	brne	.+8      	; 0xef2 <vfprintf+0x50a>
     eea:	0f 7e       	andi	r16, 0xEF	; 239
     eec:	2a e0       	ldi	r18, 0x0A	; 10
     eee:	30 e0       	ldi	r19, 0x00	; 0
     ef0:	1d c0       	rjmp	.+58     	; 0xf2c <vfprintf+0x544>
     ef2:	09 7f       	andi	r16, 0xF9	; 249
     ef4:	8f 36       	cpi	r24, 0x6F	; 111
     ef6:	91 f0       	breq	.+36     	; 0xf1c <vfprintf+0x534>
     ef8:	18 f4       	brcc	.+6      	; 0xf00 <vfprintf+0x518>
     efa:	88 35       	cpi	r24, 0x58	; 88
     efc:	59 f0       	breq	.+22     	; 0xf14 <vfprintf+0x52c>
     efe:	c3 c0       	rjmp	.+390    	; 0x1086 <vfprintf+0x69e>
     f00:	80 37       	cpi	r24, 0x70	; 112
     f02:	19 f0       	breq	.+6      	; 0xf0a <vfprintf+0x522>
     f04:	88 37       	cpi	r24, 0x78	; 120
     f06:	11 f0       	breq	.+4      	; 0xf0c <vfprintf+0x524>
     f08:	be c0       	rjmp	.+380    	; 0x1086 <vfprintf+0x69e>
     f0a:	00 61       	ori	r16, 0x10	; 16
     f0c:	04 ff       	sbrs	r16, 4
     f0e:	09 c0       	rjmp	.+18     	; 0xf22 <vfprintf+0x53a>
     f10:	04 60       	ori	r16, 0x04	; 4
     f12:	07 c0       	rjmp	.+14     	; 0xf22 <vfprintf+0x53a>
     f14:	94 fe       	sbrs	r9, 4
     f16:	08 c0       	rjmp	.+16     	; 0xf28 <vfprintf+0x540>
     f18:	06 60       	ori	r16, 0x06	; 6
     f1a:	06 c0       	rjmp	.+12     	; 0xf28 <vfprintf+0x540>
     f1c:	28 e0       	ldi	r18, 0x08	; 8
     f1e:	30 e0       	ldi	r19, 0x00	; 0
     f20:	05 c0       	rjmp	.+10     	; 0xf2c <vfprintf+0x544>
     f22:	20 e1       	ldi	r18, 0x10	; 16
     f24:	30 e0       	ldi	r19, 0x00	; 0
     f26:	02 c0       	rjmp	.+4      	; 0xf2c <vfprintf+0x544>
     f28:	20 e1       	ldi	r18, 0x10	; 16
     f2a:	32 e0       	ldi	r19, 0x02	; 2
     f2c:	56 01       	movw	r10, r12
     f2e:	07 ff       	sbrs	r16, 7
     f30:	09 c0       	rjmp	.+18     	; 0xf44 <vfprintf+0x55c>
     f32:	84 e0       	ldi	r24, 0x04	; 4
     f34:	a8 0e       	add	r10, r24
     f36:	b1 1c       	adc	r11, r1
     f38:	f6 01       	movw	r30, r12
     f3a:	60 81       	ld	r22, Z
     f3c:	71 81       	ldd	r23, Z+1	; 0x01
     f3e:	82 81       	ldd	r24, Z+2	; 0x02
     f40:	93 81       	ldd	r25, Z+3	; 0x03
     f42:	08 c0       	rjmp	.+16     	; 0xf54 <vfprintf+0x56c>
     f44:	f2 e0       	ldi	r31, 0x02	; 2
     f46:	af 0e       	add	r10, r31
     f48:	b1 1c       	adc	r11, r1
     f4a:	f6 01       	movw	r30, r12
     f4c:	60 81       	ld	r22, Z
     f4e:	71 81       	ldd	r23, Z+1	; 0x01
     f50:	80 e0       	ldi	r24, 0x00	; 0
     f52:	90 e0       	ldi	r25, 0x00	; 0
     f54:	a3 01       	movw	r20, r6
     f56:	0e 94 26 0a 	call	0x144c	; 0x144c <__ultoa_invert>
     f5a:	c8 2e       	mov	r12, r24
     f5c:	c6 18       	sub	r12, r6
     f5e:	0f 77       	andi	r16, 0x7F	; 127
     f60:	90 2e       	mov	r9, r16
     f62:	96 fe       	sbrs	r9, 6
     f64:	0b c0       	rjmp	.+22     	; 0xf7c <vfprintf+0x594>
     f66:	09 2d       	mov	r16, r9
     f68:	0e 7f       	andi	r16, 0xFE	; 254
     f6a:	c1 16       	cp	r12, r17
     f6c:	50 f4       	brcc	.+20     	; 0xf82 <vfprintf+0x59a>
     f6e:	94 fe       	sbrs	r9, 4
     f70:	0a c0       	rjmp	.+20     	; 0xf86 <vfprintf+0x59e>
     f72:	92 fc       	sbrc	r9, 2
     f74:	08 c0       	rjmp	.+16     	; 0xf86 <vfprintf+0x59e>
     f76:	09 2d       	mov	r16, r9
     f78:	0e 7e       	andi	r16, 0xEE	; 238
     f7a:	05 c0       	rjmp	.+10     	; 0xf86 <vfprintf+0x59e>
     f7c:	dc 2c       	mov	r13, r12
     f7e:	09 2d       	mov	r16, r9
     f80:	03 c0       	rjmp	.+6      	; 0xf88 <vfprintf+0x5a0>
     f82:	dc 2c       	mov	r13, r12
     f84:	01 c0       	rjmp	.+2      	; 0xf88 <vfprintf+0x5a0>
     f86:	d1 2e       	mov	r13, r17
     f88:	04 ff       	sbrs	r16, 4
     f8a:	0d c0       	rjmp	.+26     	; 0xfa6 <vfprintf+0x5be>
     f8c:	fe 01       	movw	r30, r28
     f8e:	ec 0d       	add	r30, r12
     f90:	f1 1d       	adc	r31, r1
     f92:	80 81       	ld	r24, Z
     f94:	80 33       	cpi	r24, 0x30	; 48
     f96:	11 f4       	brne	.+4      	; 0xf9c <vfprintf+0x5b4>
     f98:	09 7e       	andi	r16, 0xE9	; 233
     f9a:	09 c0       	rjmp	.+18     	; 0xfae <vfprintf+0x5c6>
     f9c:	02 ff       	sbrs	r16, 2
     f9e:	06 c0       	rjmp	.+12     	; 0xfac <vfprintf+0x5c4>
     fa0:	d3 94       	inc	r13
     fa2:	d3 94       	inc	r13
     fa4:	04 c0       	rjmp	.+8      	; 0xfae <vfprintf+0x5c6>
     fa6:	80 2f       	mov	r24, r16
     fa8:	86 78       	andi	r24, 0x86	; 134
     faa:	09 f0       	breq	.+2      	; 0xfae <vfprintf+0x5c6>
     fac:	d3 94       	inc	r13
     fae:	03 fd       	sbrc	r16, 3
     fb0:	11 c0       	rjmp	.+34     	; 0xfd4 <vfprintf+0x5ec>
     fb2:	00 ff       	sbrs	r16, 0
     fb4:	06 c0       	rjmp	.+12     	; 0xfc2 <vfprintf+0x5da>
     fb6:	1c 2d       	mov	r17, r12
     fb8:	d5 14       	cp	r13, r5
     fba:	80 f4       	brcc	.+32     	; 0xfdc <vfprintf+0x5f4>
     fbc:	15 0d       	add	r17, r5
     fbe:	1d 19       	sub	r17, r13
     fc0:	0d c0       	rjmp	.+26     	; 0xfdc <vfprintf+0x5f4>
     fc2:	d5 14       	cp	r13, r5
     fc4:	58 f4       	brcc	.+22     	; 0xfdc <vfprintf+0x5f4>
     fc6:	b7 01       	movw	r22, r14
     fc8:	80 e2       	ldi	r24, 0x20	; 32
     fca:	90 e0       	ldi	r25, 0x00	; 0
     fcc:	0e 94 c8 09 	call	0x1390	; 0x1390 <fputc>
     fd0:	d3 94       	inc	r13
     fd2:	f7 cf       	rjmp	.-18     	; 0xfc2 <vfprintf+0x5da>
     fd4:	d5 14       	cp	r13, r5
     fd6:	10 f4       	brcc	.+4      	; 0xfdc <vfprintf+0x5f4>
     fd8:	5d 18       	sub	r5, r13
     fda:	01 c0       	rjmp	.+2      	; 0xfde <vfprintf+0x5f6>
     fdc:	51 2c       	mov	r5, r1
     fde:	04 ff       	sbrs	r16, 4
     fe0:	10 c0       	rjmp	.+32     	; 0x1002 <vfprintf+0x61a>
     fe2:	b7 01       	movw	r22, r14
     fe4:	80 e3       	ldi	r24, 0x30	; 48
     fe6:	90 e0       	ldi	r25, 0x00	; 0
     fe8:	0e 94 c8 09 	call	0x1390	; 0x1390 <fputc>
     fec:	02 ff       	sbrs	r16, 2
     fee:	17 c0       	rjmp	.+46     	; 0x101e <vfprintf+0x636>
     ff0:	01 fd       	sbrc	r16, 1
     ff2:	03 c0       	rjmp	.+6      	; 0xffa <vfprintf+0x612>
     ff4:	88 e7       	ldi	r24, 0x78	; 120
     ff6:	90 e0       	ldi	r25, 0x00	; 0
     ff8:	02 c0       	rjmp	.+4      	; 0xffe <vfprintf+0x616>
     ffa:	88 e5       	ldi	r24, 0x58	; 88
     ffc:	90 e0       	ldi	r25, 0x00	; 0
     ffe:	b7 01       	movw	r22, r14
    1000:	0c c0       	rjmp	.+24     	; 0x101a <vfprintf+0x632>
    1002:	80 2f       	mov	r24, r16
    1004:	86 78       	andi	r24, 0x86	; 134
    1006:	59 f0       	breq	.+22     	; 0x101e <vfprintf+0x636>
    1008:	01 ff       	sbrs	r16, 1
    100a:	02 c0       	rjmp	.+4      	; 0x1010 <vfprintf+0x628>
    100c:	8b e2       	ldi	r24, 0x2B	; 43
    100e:	01 c0       	rjmp	.+2      	; 0x1012 <vfprintf+0x62a>
    1010:	80 e2       	ldi	r24, 0x20	; 32
    1012:	07 fd       	sbrc	r16, 7
    1014:	8d e2       	ldi	r24, 0x2D	; 45
    1016:	b7 01       	movw	r22, r14
    1018:	90 e0       	ldi	r25, 0x00	; 0
    101a:	0e 94 c8 09 	call	0x1390	; 0x1390 <fputc>
    101e:	c1 16       	cp	r12, r17
    1020:	38 f4       	brcc	.+14     	; 0x1030 <vfprintf+0x648>
    1022:	b7 01       	movw	r22, r14
    1024:	80 e3       	ldi	r24, 0x30	; 48
    1026:	90 e0       	ldi	r25, 0x00	; 0
    1028:	0e 94 c8 09 	call	0x1390	; 0x1390 <fputc>
    102c:	11 50       	subi	r17, 0x01	; 1
    102e:	f7 cf       	rjmp	.-18     	; 0x101e <vfprintf+0x636>
    1030:	ca 94       	dec	r12
    1032:	f3 01       	movw	r30, r6
    1034:	ec 0d       	add	r30, r12
    1036:	f1 1d       	adc	r31, r1
    1038:	80 81       	ld	r24, Z
    103a:	b7 01       	movw	r22, r14
    103c:	90 e0       	ldi	r25, 0x00	; 0
    103e:	0e 94 c8 09 	call	0x1390	; 0x1390 <fputc>
    1042:	c1 10       	cpse	r12, r1
    1044:	f5 cf       	rjmp	.-22     	; 0x1030 <vfprintf+0x648>
    1046:	15 c0       	rjmp	.+42     	; 0x1072 <vfprintf+0x68a>
    1048:	f4 e0       	ldi	r31, 0x04	; 4
    104a:	f5 15       	cp	r31, r5
    104c:	60 f5       	brcc	.+88     	; 0x10a6 <vfprintf+0x6be>
    104e:	84 e0       	ldi	r24, 0x04	; 4
    1050:	58 1a       	sub	r5, r24
    1052:	93 fe       	sbrs	r9, 3
    1054:	1f c0       	rjmp	.+62     	; 0x1094 <vfprintf+0x6ac>
    1056:	01 11       	cpse	r16, r1
    1058:	27 c0       	rjmp	.+78     	; 0x10a8 <vfprintf+0x6c0>
    105a:	2c 85       	ldd	r18, Y+12	; 0x0c
    105c:	23 ff       	sbrs	r18, 3
    105e:	2a c0       	rjmp	.+84     	; 0x10b4 <vfprintf+0x6cc>
    1060:	04 e5       	ldi	r16, 0x54	; 84
    1062:	10 e0       	ldi	r17, 0x00	; 0
    1064:	39 2d       	mov	r19, r9
    1066:	30 71       	andi	r19, 0x10	; 16
    1068:	93 2e       	mov	r9, r19
    106a:	f8 01       	movw	r30, r16
    106c:	84 91       	lpm	r24, Z
    106e:	81 11       	cpse	r24, r1
    1070:	24 c0       	rjmp	.+72     	; 0x10ba <vfprintf+0x6d2>
    1072:	55 20       	and	r5, r5
    1074:	09 f4       	brne	.+2      	; 0x1078 <vfprintf+0x690>
    1076:	e4 cc       	rjmp	.-1592   	; 0xa40 <vfprintf+0x58>
    1078:	b7 01       	movw	r22, r14
    107a:	80 e2       	ldi	r24, 0x20	; 32
    107c:	90 e0       	ldi	r25, 0x00	; 0
    107e:	0e 94 c8 09 	call	0x1390	; 0x1390 <fputc>
    1082:	5a 94       	dec	r5
    1084:	f6 cf       	rjmp	.-20     	; 0x1072 <vfprintf+0x68a>
    1086:	f7 01       	movw	r30, r14
    1088:	86 81       	ldd	r24, Z+6	; 0x06
    108a:	97 81       	ldd	r25, Z+7	; 0x07
    108c:	26 c0       	rjmp	.+76     	; 0x10da <vfprintf+0x6f2>
    108e:	8f ef       	ldi	r24, 0xFF	; 255
    1090:	9f ef       	ldi	r25, 0xFF	; 255
    1092:	23 c0       	rjmp	.+70     	; 0x10da <vfprintf+0x6f2>
    1094:	b7 01       	movw	r22, r14
    1096:	80 e2       	ldi	r24, 0x20	; 32
    1098:	90 e0       	ldi	r25, 0x00	; 0
    109a:	0e 94 c8 09 	call	0x1390	; 0x1390 <fputc>
    109e:	5a 94       	dec	r5
    10a0:	51 10       	cpse	r5, r1
    10a2:	f8 cf       	rjmp	.-16     	; 0x1094 <vfprintf+0x6ac>
    10a4:	d8 cf       	rjmp	.-80     	; 0x1056 <vfprintf+0x66e>
    10a6:	51 2c       	mov	r5, r1
    10a8:	b7 01       	movw	r22, r14
    10aa:	80 2f       	mov	r24, r16
    10ac:	90 e0       	ldi	r25, 0x00	; 0
    10ae:	0e 94 c8 09 	call	0x1390	; 0x1390 <fputc>
    10b2:	d3 cf       	rjmp	.-90     	; 0x105a <vfprintf+0x672>
    10b4:	08 e5       	ldi	r16, 0x58	; 88
    10b6:	10 e0       	ldi	r17, 0x00	; 0
    10b8:	d5 cf       	rjmp	.-86     	; 0x1064 <vfprintf+0x67c>
    10ba:	91 10       	cpse	r9, r1
    10bc:	80 52       	subi	r24, 0x20	; 32
    10be:	b7 01       	movw	r22, r14
    10c0:	90 e0       	ldi	r25, 0x00	; 0
    10c2:	0e 94 c8 09 	call	0x1390	; 0x1390 <fputc>
    10c6:	0f 5f       	subi	r16, 0xFF	; 255
    10c8:	1f 4f       	sbci	r17, 0xFF	; 255
    10ca:	cf cf       	rjmp	.-98     	; 0x106a <vfprintf+0x682>
    10cc:	23 e0       	ldi	r18, 0x03	; 3
    10ce:	25 15       	cp	r18, r5
    10d0:	10 f4       	brcc	.+4      	; 0x10d6 <vfprintf+0x6ee>
    10d2:	83 e0       	ldi	r24, 0x03	; 3
    10d4:	bd cf       	rjmp	.-134    	; 0x1050 <vfprintf+0x668>
    10d6:	51 2c       	mov	r5, r1
    10d8:	c0 cf       	rjmp	.-128    	; 0x105a <vfprintf+0x672>
    10da:	60 96       	adiw	r28, 0x10	; 16
    10dc:	e2 e1       	ldi	r30, 0x12	; 18
    10de:	0c 94 b0 08 	jmp	0x1160	; 0x1160 <__epilogue_restores__>

000010e2 <__mulsi3>:
    10e2:	db 01       	movw	r26, r22
    10e4:	8f 93       	push	r24
    10e6:	9f 93       	push	r25
    10e8:	0e 94 81 08 	call	0x1102	; 0x1102 <__muluhisi3>
    10ec:	bf 91       	pop	r27
    10ee:	af 91       	pop	r26
    10f0:	a2 9f       	mul	r26, r18
    10f2:	80 0d       	add	r24, r0
    10f4:	91 1d       	adc	r25, r1
    10f6:	a3 9f       	mul	r26, r19
    10f8:	90 0d       	add	r25, r0
    10fa:	b2 9f       	mul	r27, r18
    10fc:	90 0d       	add	r25, r0
    10fe:	11 24       	eor	r1, r1
    1100:	08 95       	ret

00001102 <__muluhisi3>:
    1102:	0e 94 cb 08 	call	0x1196	; 0x1196 <__umulhisi3>
    1106:	a5 9f       	mul	r26, r21
    1108:	90 0d       	add	r25, r0
    110a:	b4 9f       	mul	r27, r20
    110c:	90 0d       	add	r25, r0
    110e:	a4 9f       	mul	r26, r20
    1110:	80 0d       	add	r24, r0
    1112:	91 1d       	adc	r25, r1
    1114:	11 24       	eor	r1, r1
    1116:	08 95       	ret

00001118 <__mulshisi3>:
    1118:	b7 ff       	sbrs	r27, 7
    111a:	0c 94 81 08 	jmp	0x1102	; 0x1102 <__muluhisi3>

0000111e <__mulohisi3>:
    111e:	0e 94 81 08 	call	0x1102	; 0x1102 <__muluhisi3>
    1122:	82 1b       	sub	r24, r18
    1124:	93 0b       	sbc	r25, r19
    1126:	08 95       	ret

00001128 <__prologue_saves__>:
    1128:	2f 92       	push	r2
    112a:	3f 92       	push	r3
    112c:	4f 92       	push	r4
    112e:	5f 92       	push	r5
    1130:	6f 92       	push	r6
    1132:	7f 92       	push	r7
    1134:	8f 92       	push	r8
    1136:	9f 92       	push	r9
    1138:	af 92       	push	r10
    113a:	bf 92       	push	r11
    113c:	cf 92       	push	r12
    113e:	df 92       	push	r13
    1140:	ef 92       	push	r14
    1142:	ff 92       	push	r15
    1144:	0f 93       	push	r16
    1146:	1f 93       	push	r17
    1148:	cf 93       	push	r28
    114a:	df 93       	push	r29
    114c:	cd b7       	in	r28, 0x3d	; 61
    114e:	de b7       	in	r29, 0x3e	; 62
    1150:	ca 1b       	sub	r28, r26
    1152:	db 0b       	sbc	r29, r27
    1154:	0f b6       	in	r0, 0x3f	; 63
    1156:	f8 94       	cli
    1158:	de bf       	out	0x3e, r29	; 62
    115a:	0f be       	out	0x3f, r0	; 63
    115c:	cd bf       	out	0x3d, r28	; 61
    115e:	09 94       	ijmp

00001160 <__epilogue_restores__>:
    1160:	2a 88       	ldd	r2, Y+18	; 0x12
    1162:	39 88       	ldd	r3, Y+17	; 0x11
    1164:	48 88       	ldd	r4, Y+16	; 0x10
    1166:	5f 84       	ldd	r5, Y+15	; 0x0f
    1168:	6e 84       	ldd	r6, Y+14	; 0x0e
    116a:	7d 84       	ldd	r7, Y+13	; 0x0d
    116c:	8c 84       	ldd	r8, Y+12	; 0x0c
    116e:	9b 84       	ldd	r9, Y+11	; 0x0b
    1170:	aa 84       	ldd	r10, Y+10	; 0x0a
    1172:	b9 84       	ldd	r11, Y+9	; 0x09
    1174:	c8 84       	ldd	r12, Y+8	; 0x08
    1176:	df 80       	ldd	r13, Y+7	; 0x07
    1178:	ee 80       	ldd	r14, Y+6	; 0x06
    117a:	fd 80       	ldd	r15, Y+5	; 0x05
    117c:	0c 81       	ldd	r16, Y+4	; 0x04
    117e:	1b 81       	ldd	r17, Y+3	; 0x03
    1180:	aa 81       	ldd	r26, Y+2	; 0x02
    1182:	b9 81       	ldd	r27, Y+1	; 0x01
    1184:	ce 0f       	add	r28, r30
    1186:	d1 1d       	adc	r29, r1
    1188:	0f b6       	in	r0, 0x3f	; 63
    118a:	f8 94       	cli
    118c:	de bf       	out	0x3e, r29	; 62
    118e:	0f be       	out	0x3f, r0	; 63
    1190:	cd bf       	out	0x3d, r28	; 61
    1192:	ed 01       	movw	r28, r26
    1194:	08 95       	ret

00001196 <__umulhisi3>:
    1196:	a2 9f       	mul	r26, r18
    1198:	b0 01       	movw	r22, r0
    119a:	b3 9f       	mul	r27, r19
    119c:	c0 01       	movw	r24, r0
    119e:	a3 9f       	mul	r26, r19
    11a0:	70 0d       	add	r23, r0
    11a2:	81 1d       	adc	r24, r1
    11a4:	11 24       	eor	r1, r1
    11a6:	91 1d       	adc	r25, r1
    11a8:	b2 9f       	mul	r27, r18
    11aa:	70 0d       	add	r23, r0
    11ac:	81 1d       	adc	r24, r1
    11ae:	11 24       	eor	r1, r1
    11b0:	91 1d       	adc	r25, r1
    11b2:	08 95       	ret

000011b4 <__ftoa_engine>:
    11b4:	28 30       	cpi	r18, 0x08	; 8
    11b6:	08 f0       	brcs	.+2      	; 0x11ba <__ftoa_engine+0x6>
    11b8:	27 e0       	ldi	r18, 0x07	; 7
    11ba:	33 27       	eor	r19, r19
    11bc:	da 01       	movw	r26, r20
    11be:	99 0f       	add	r25, r25
    11c0:	31 1d       	adc	r19, r1
    11c2:	87 fd       	sbrc	r24, 7
    11c4:	91 60       	ori	r25, 0x01	; 1
    11c6:	00 96       	adiw	r24, 0x00	; 0
    11c8:	61 05       	cpc	r22, r1
    11ca:	71 05       	cpc	r23, r1
    11cc:	39 f4       	brne	.+14     	; 0x11dc <__ftoa_engine+0x28>
    11ce:	32 60       	ori	r19, 0x02	; 2
    11d0:	2e 5f       	subi	r18, 0xFE	; 254
    11d2:	3d 93       	st	X+, r19
    11d4:	30 e3       	ldi	r19, 0x30	; 48
    11d6:	2a 95       	dec	r18
    11d8:	e1 f7       	brne	.-8      	; 0x11d2 <__ftoa_engine+0x1e>
    11da:	08 95       	ret
    11dc:	9f 3f       	cpi	r25, 0xFF	; 255
    11de:	30 f0       	brcs	.+12     	; 0x11ec <__ftoa_engine+0x38>
    11e0:	80 38       	cpi	r24, 0x80	; 128
    11e2:	71 05       	cpc	r23, r1
    11e4:	61 05       	cpc	r22, r1
    11e6:	09 f0       	breq	.+2      	; 0x11ea <__ftoa_engine+0x36>
    11e8:	3c 5f       	subi	r19, 0xFC	; 252
    11ea:	3c 5f       	subi	r19, 0xFC	; 252
    11ec:	3d 93       	st	X+, r19
    11ee:	91 30       	cpi	r25, 0x01	; 1
    11f0:	08 f0       	brcs	.+2      	; 0x11f4 <__ftoa_engine+0x40>
    11f2:	80 68       	ori	r24, 0x80	; 128
    11f4:	91 1d       	adc	r25, r1
    11f6:	df 93       	push	r29
    11f8:	cf 93       	push	r28
    11fa:	1f 93       	push	r17
    11fc:	0f 93       	push	r16
    11fe:	ff 92       	push	r15
    1200:	ef 92       	push	r14
    1202:	19 2f       	mov	r17, r25
    1204:	98 7f       	andi	r25, 0xF8	; 248
    1206:	96 95       	lsr	r25
    1208:	e9 2f       	mov	r30, r25
    120a:	96 95       	lsr	r25
    120c:	96 95       	lsr	r25
    120e:	e9 0f       	add	r30, r25
    1210:	ff 27       	eor	r31, r31
    1212:	ea 54       	subi	r30, 0x4A	; 74
    1214:	ff 4f       	sbci	r31, 0xFF	; 255
    1216:	99 27       	eor	r25, r25
    1218:	33 27       	eor	r19, r19
    121a:	ee 24       	eor	r14, r14
    121c:	ff 24       	eor	r15, r15
    121e:	a7 01       	movw	r20, r14
    1220:	e7 01       	movw	r28, r14
    1222:	05 90       	lpm	r0, Z+
    1224:	08 94       	sec
    1226:	07 94       	ror	r0
    1228:	28 f4       	brcc	.+10     	; 0x1234 <__ftoa_engine+0x80>
    122a:	36 0f       	add	r19, r22
    122c:	e7 1e       	adc	r14, r23
    122e:	f8 1e       	adc	r15, r24
    1230:	49 1f       	adc	r20, r25
    1232:	51 1d       	adc	r21, r1
    1234:	66 0f       	add	r22, r22
    1236:	77 1f       	adc	r23, r23
    1238:	88 1f       	adc	r24, r24
    123a:	99 1f       	adc	r25, r25
    123c:	06 94       	lsr	r0
    123e:	a1 f7       	brne	.-24     	; 0x1228 <__ftoa_engine+0x74>
    1240:	05 90       	lpm	r0, Z+
    1242:	07 94       	ror	r0
    1244:	28 f4       	brcc	.+10     	; 0x1250 <__ftoa_engine+0x9c>
    1246:	e7 0e       	add	r14, r23
    1248:	f8 1e       	adc	r15, r24
    124a:	49 1f       	adc	r20, r25
    124c:	56 1f       	adc	r21, r22
    124e:	c1 1d       	adc	r28, r1
    1250:	77 0f       	add	r23, r23
    1252:	88 1f       	adc	r24, r24
    1254:	99 1f       	adc	r25, r25
    1256:	66 1f       	adc	r22, r22
    1258:	06 94       	lsr	r0
    125a:	a1 f7       	brne	.-24     	; 0x1244 <__ftoa_engine+0x90>
    125c:	05 90       	lpm	r0, Z+
    125e:	07 94       	ror	r0
    1260:	28 f4       	brcc	.+10     	; 0x126c <__ftoa_engine+0xb8>
    1262:	f8 0e       	add	r15, r24
    1264:	49 1f       	adc	r20, r25
    1266:	56 1f       	adc	r21, r22
    1268:	c7 1f       	adc	r28, r23
    126a:	d1 1d       	adc	r29, r1
    126c:	88 0f       	add	r24, r24
    126e:	99 1f       	adc	r25, r25
    1270:	66 1f       	adc	r22, r22
    1272:	77 1f       	adc	r23, r23
    1274:	06 94       	lsr	r0
    1276:	a1 f7       	brne	.-24     	; 0x1260 <__ftoa_engine+0xac>
    1278:	05 90       	lpm	r0, Z+
    127a:	07 94       	ror	r0
    127c:	20 f4       	brcc	.+8      	; 0x1286 <__ftoa_engine+0xd2>
    127e:	49 0f       	add	r20, r25
    1280:	56 1f       	adc	r21, r22
    1282:	c7 1f       	adc	r28, r23
    1284:	d8 1f       	adc	r29, r24
    1286:	99 0f       	add	r25, r25
    1288:	66 1f       	adc	r22, r22
    128a:	77 1f       	adc	r23, r23
    128c:	88 1f       	adc	r24, r24
    128e:	06 94       	lsr	r0
    1290:	a9 f7       	brne	.-22     	; 0x127c <__ftoa_engine+0xc8>
    1292:	84 91       	lpm	r24, Z
    1294:	10 95       	com	r17
    1296:	17 70       	andi	r17, 0x07	; 7
    1298:	41 f0       	breq	.+16     	; 0x12aa <__ftoa_engine+0xf6>
    129a:	d6 95       	lsr	r29
    129c:	c7 95       	ror	r28
    129e:	57 95       	ror	r21
    12a0:	47 95       	ror	r20
    12a2:	f7 94       	ror	r15
    12a4:	e7 94       	ror	r14
    12a6:	1a 95       	dec	r17
    12a8:	c1 f7       	brne	.-16     	; 0x129a <__ftoa_engine+0xe6>
    12aa:	ec e5       	ldi	r30, 0x5C	; 92
    12ac:	f0 e0       	ldi	r31, 0x00	; 0
    12ae:	68 94       	set
    12b0:	15 90       	lpm	r1, Z+
    12b2:	15 91       	lpm	r17, Z+
    12b4:	35 91       	lpm	r19, Z+
    12b6:	65 91       	lpm	r22, Z+
    12b8:	95 91       	lpm	r25, Z+
    12ba:	05 90       	lpm	r0, Z+
    12bc:	7f e2       	ldi	r23, 0x2F	; 47
    12be:	73 95       	inc	r23
    12c0:	e1 18       	sub	r14, r1
    12c2:	f1 0a       	sbc	r15, r17
    12c4:	43 0b       	sbc	r20, r19
    12c6:	56 0b       	sbc	r21, r22
    12c8:	c9 0b       	sbc	r28, r25
    12ca:	d0 09       	sbc	r29, r0
    12cc:	c0 f7       	brcc	.-16     	; 0x12be <__ftoa_engine+0x10a>
    12ce:	e1 0c       	add	r14, r1
    12d0:	f1 1e       	adc	r15, r17
    12d2:	43 1f       	adc	r20, r19
    12d4:	56 1f       	adc	r21, r22
    12d6:	c9 1f       	adc	r28, r25
    12d8:	d0 1d       	adc	r29, r0
    12da:	7e f4       	brtc	.+30     	; 0x12fa <__ftoa_engine+0x146>
    12dc:	70 33       	cpi	r23, 0x30	; 48
    12de:	11 f4       	brne	.+4      	; 0x12e4 <__ftoa_engine+0x130>
    12e0:	8a 95       	dec	r24
    12e2:	e6 cf       	rjmp	.-52     	; 0x12b0 <__ftoa_engine+0xfc>
    12e4:	e8 94       	clt
    12e6:	01 50       	subi	r16, 0x01	; 1
    12e8:	30 f0       	brcs	.+12     	; 0x12f6 <__ftoa_engine+0x142>
    12ea:	08 0f       	add	r16, r24
    12ec:	0a f4       	brpl	.+2      	; 0x12f0 <__ftoa_engine+0x13c>
    12ee:	00 27       	eor	r16, r16
    12f0:	02 17       	cp	r16, r18
    12f2:	08 f4       	brcc	.+2      	; 0x12f6 <__ftoa_engine+0x142>
    12f4:	20 2f       	mov	r18, r16
    12f6:	23 95       	inc	r18
    12f8:	02 2f       	mov	r16, r18
    12fa:	7a 33       	cpi	r23, 0x3A	; 58
    12fc:	28 f0       	brcs	.+10     	; 0x1308 <__ftoa_engine+0x154>
    12fe:	79 e3       	ldi	r23, 0x39	; 57
    1300:	7d 93       	st	X+, r23
    1302:	2a 95       	dec	r18
    1304:	e9 f7       	brne	.-6      	; 0x1300 <__ftoa_engine+0x14c>
    1306:	10 c0       	rjmp	.+32     	; 0x1328 <__ftoa_engine+0x174>
    1308:	7d 93       	st	X+, r23
    130a:	2a 95       	dec	r18
    130c:	89 f6       	brne	.-94     	; 0x12b0 <__ftoa_engine+0xfc>
    130e:	06 94       	lsr	r0
    1310:	97 95       	ror	r25
    1312:	67 95       	ror	r22
    1314:	37 95       	ror	r19
    1316:	17 95       	ror	r17
    1318:	17 94       	ror	r1
    131a:	e1 18       	sub	r14, r1
    131c:	f1 0a       	sbc	r15, r17
    131e:	43 0b       	sbc	r20, r19
    1320:	56 0b       	sbc	r21, r22
    1322:	c9 0b       	sbc	r28, r25
    1324:	d0 09       	sbc	r29, r0
    1326:	98 f0       	brcs	.+38     	; 0x134e <__ftoa_engine+0x19a>
    1328:	23 95       	inc	r18
    132a:	7e 91       	ld	r23, -X
    132c:	73 95       	inc	r23
    132e:	7a 33       	cpi	r23, 0x3A	; 58
    1330:	08 f0       	brcs	.+2      	; 0x1334 <__ftoa_engine+0x180>
    1332:	70 e3       	ldi	r23, 0x30	; 48
    1334:	7c 93       	st	X, r23
    1336:	20 13       	cpse	r18, r16
    1338:	b8 f7       	brcc	.-18     	; 0x1328 <__ftoa_engine+0x174>
    133a:	7e 91       	ld	r23, -X
    133c:	70 61       	ori	r23, 0x10	; 16
    133e:	7d 93       	st	X+, r23
    1340:	30 f0       	brcs	.+12     	; 0x134e <__ftoa_engine+0x19a>
    1342:	83 95       	inc	r24
    1344:	71 e3       	ldi	r23, 0x31	; 49
    1346:	7d 93       	st	X+, r23
    1348:	70 e3       	ldi	r23, 0x30	; 48
    134a:	2a 95       	dec	r18
    134c:	e1 f7       	brne	.-8      	; 0x1346 <__ftoa_engine+0x192>
    134e:	11 24       	eor	r1, r1
    1350:	ef 90       	pop	r14
    1352:	ff 90       	pop	r15
    1354:	0f 91       	pop	r16
    1356:	1f 91       	pop	r17
    1358:	cf 91       	pop	r28
    135a:	df 91       	pop	r29
    135c:	99 27       	eor	r25, r25
    135e:	87 fd       	sbrc	r24, 7
    1360:	90 95       	com	r25
    1362:	08 95       	ret

00001364 <strnlen_P>:
    1364:	fc 01       	movw	r30, r24
    1366:	05 90       	lpm	r0, Z+
    1368:	61 50       	subi	r22, 0x01	; 1
    136a:	70 40       	sbci	r23, 0x00	; 0
    136c:	01 10       	cpse	r0, r1
    136e:	d8 f7       	brcc	.-10     	; 0x1366 <strnlen_P+0x2>
    1370:	80 95       	com	r24
    1372:	90 95       	com	r25
    1374:	8e 0f       	add	r24, r30
    1376:	9f 1f       	adc	r25, r31
    1378:	08 95       	ret

0000137a <strnlen>:
    137a:	fc 01       	movw	r30, r24
    137c:	61 50       	subi	r22, 0x01	; 1
    137e:	70 40       	sbci	r23, 0x00	; 0
    1380:	01 90       	ld	r0, Z+
    1382:	01 10       	cpse	r0, r1
    1384:	d8 f7       	brcc	.-10     	; 0x137c <strnlen+0x2>
    1386:	80 95       	com	r24
    1388:	90 95       	com	r25
    138a:	8e 0f       	add	r24, r30
    138c:	9f 1f       	adc	r25, r31
    138e:	08 95       	ret

00001390 <fputc>:
    1390:	0f 93       	push	r16
    1392:	1f 93       	push	r17
    1394:	cf 93       	push	r28
    1396:	df 93       	push	r29
    1398:	fb 01       	movw	r30, r22
    139a:	23 81       	ldd	r18, Z+3	; 0x03
    139c:	21 fd       	sbrc	r18, 1
    139e:	03 c0       	rjmp	.+6      	; 0x13a6 <fputc+0x16>
    13a0:	8f ef       	ldi	r24, 0xFF	; 255
    13a2:	9f ef       	ldi	r25, 0xFF	; 255
    13a4:	2c c0       	rjmp	.+88     	; 0x13fe <fputc+0x6e>
    13a6:	22 ff       	sbrs	r18, 2
    13a8:	16 c0       	rjmp	.+44     	; 0x13d6 <fputc+0x46>
    13aa:	46 81       	ldd	r20, Z+6	; 0x06
    13ac:	57 81       	ldd	r21, Z+7	; 0x07
    13ae:	24 81       	ldd	r18, Z+4	; 0x04
    13b0:	35 81       	ldd	r19, Z+5	; 0x05
    13b2:	42 17       	cp	r20, r18
    13b4:	53 07       	cpc	r21, r19
    13b6:	44 f4       	brge	.+16     	; 0x13c8 <fputc+0x38>
    13b8:	a0 81       	ld	r26, Z
    13ba:	b1 81       	ldd	r27, Z+1	; 0x01
    13bc:	9d 01       	movw	r18, r26
    13be:	2f 5f       	subi	r18, 0xFF	; 255
    13c0:	3f 4f       	sbci	r19, 0xFF	; 255
    13c2:	31 83       	std	Z+1, r19	; 0x01
    13c4:	20 83       	st	Z, r18
    13c6:	8c 93       	st	X, r24
    13c8:	26 81       	ldd	r18, Z+6	; 0x06
    13ca:	37 81       	ldd	r19, Z+7	; 0x07
    13cc:	2f 5f       	subi	r18, 0xFF	; 255
    13ce:	3f 4f       	sbci	r19, 0xFF	; 255
    13d0:	37 83       	std	Z+7, r19	; 0x07
    13d2:	26 83       	std	Z+6, r18	; 0x06
    13d4:	14 c0       	rjmp	.+40     	; 0x13fe <fputc+0x6e>
    13d6:	8b 01       	movw	r16, r22
    13d8:	ec 01       	movw	r28, r24
    13da:	fb 01       	movw	r30, r22
    13dc:	00 84       	ldd	r0, Z+8	; 0x08
    13de:	f1 85       	ldd	r31, Z+9	; 0x09
    13e0:	e0 2d       	mov	r30, r0
    13e2:	09 95       	icall
    13e4:	89 2b       	or	r24, r25
    13e6:	e1 f6       	brne	.-72     	; 0x13a0 <fputc+0x10>
    13e8:	d8 01       	movw	r26, r16
    13ea:	16 96       	adiw	r26, 0x06	; 6
    13ec:	8d 91       	ld	r24, X+
    13ee:	9c 91       	ld	r25, X
    13f0:	17 97       	sbiw	r26, 0x07	; 7
    13f2:	01 96       	adiw	r24, 0x01	; 1
    13f4:	17 96       	adiw	r26, 0x07	; 7
    13f6:	9c 93       	st	X, r25
    13f8:	8e 93       	st	-X, r24
    13fa:	16 97       	sbiw	r26, 0x06	; 6
    13fc:	ce 01       	movw	r24, r28
    13fe:	df 91       	pop	r29
    1400:	cf 91       	pop	r28
    1402:	1f 91       	pop	r17
    1404:	0f 91       	pop	r16
    1406:	08 95       	ret

00001408 <sprintf>:
    1408:	ae e0       	ldi	r26, 0x0E	; 14
    140a:	b0 e0       	ldi	r27, 0x00	; 0
    140c:	ea e0       	ldi	r30, 0x0A	; 10
    140e:	fa e0       	ldi	r31, 0x0A	; 10
    1410:	0c 94 a2 08 	jmp	0x1144	; 0x1144 <__prologue_saves__+0x1c>
    1414:	0d 89       	ldd	r16, Y+21	; 0x15
    1416:	1e 89       	ldd	r17, Y+22	; 0x16
    1418:	86 e0       	ldi	r24, 0x06	; 6
    141a:	8c 83       	std	Y+4, r24	; 0x04
    141c:	1a 83       	std	Y+2, r17	; 0x02
    141e:	09 83       	std	Y+1, r16	; 0x01
    1420:	8f ef       	ldi	r24, 0xFF	; 255
    1422:	9f e7       	ldi	r25, 0x7F	; 127
    1424:	9e 83       	std	Y+6, r25	; 0x06
    1426:	8d 83       	std	Y+5, r24	; 0x05
    1428:	ae 01       	movw	r20, r28
    142a:	47 5e       	subi	r20, 0xE7	; 231
    142c:	5f 4f       	sbci	r21, 0xFF	; 255
    142e:	6f 89       	ldd	r22, Y+23	; 0x17
    1430:	78 8d       	ldd	r23, Y+24	; 0x18
    1432:	ce 01       	movw	r24, r28
    1434:	01 96       	adiw	r24, 0x01	; 1
    1436:	0e 94 f4 04 	call	0x9e8	; 0x9e8 <vfprintf>
    143a:	ef 81       	ldd	r30, Y+7	; 0x07
    143c:	f8 85       	ldd	r31, Y+8	; 0x08
    143e:	e0 0f       	add	r30, r16
    1440:	f1 1f       	adc	r31, r17
    1442:	10 82       	st	Z, r1
    1444:	2e 96       	adiw	r28, 0x0e	; 14
    1446:	e4 e0       	ldi	r30, 0x04	; 4
    1448:	0c 94 be 08 	jmp	0x117c	; 0x117c <__epilogue_restores__+0x1c>

0000144c <__ultoa_invert>:
    144c:	fa 01       	movw	r30, r20
    144e:	aa 27       	eor	r26, r26
    1450:	28 30       	cpi	r18, 0x08	; 8
    1452:	51 f1       	breq	.+84     	; 0x14a8 <__ultoa_invert+0x5c>
    1454:	20 31       	cpi	r18, 0x10	; 16
    1456:	81 f1       	breq	.+96     	; 0x14b8 <__ultoa_invert+0x6c>
    1458:	e8 94       	clt
    145a:	6f 93       	push	r22
    145c:	6e 7f       	andi	r22, 0xFE	; 254
    145e:	6e 5f       	subi	r22, 0xFE	; 254
    1460:	7f 4f       	sbci	r23, 0xFF	; 255
    1462:	8f 4f       	sbci	r24, 0xFF	; 255
    1464:	9f 4f       	sbci	r25, 0xFF	; 255
    1466:	af 4f       	sbci	r26, 0xFF	; 255
    1468:	b1 e0       	ldi	r27, 0x01	; 1
    146a:	3e d0       	rcall	.+124    	; 0x14e8 <__ultoa_invert+0x9c>
    146c:	b4 e0       	ldi	r27, 0x04	; 4
    146e:	3c d0       	rcall	.+120    	; 0x14e8 <__ultoa_invert+0x9c>
    1470:	67 0f       	add	r22, r23
    1472:	78 1f       	adc	r23, r24
    1474:	89 1f       	adc	r24, r25
    1476:	9a 1f       	adc	r25, r26
    1478:	a1 1d       	adc	r26, r1
    147a:	68 0f       	add	r22, r24
    147c:	79 1f       	adc	r23, r25
    147e:	8a 1f       	adc	r24, r26
    1480:	91 1d       	adc	r25, r1
    1482:	a1 1d       	adc	r26, r1
    1484:	6a 0f       	add	r22, r26
    1486:	71 1d       	adc	r23, r1
    1488:	81 1d       	adc	r24, r1
    148a:	91 1d       	adc	r25, r1
    148c:	a1 1d       	adc	r26, r1
    148e:	20 d0       	rcall	.+64     	; 0x14d0 <__ultoa_invert+0x84>
    1490:	09 f4       	brne	.+2      	; 0x1494 <__ultoa_invert+0x48>
    1492:	68 94       	set
    1494:	3f 91       	pop	r19
    1496:	2a e0       	ldi	r18, 0x0A	; 10
    1498:	26 9f       	mul	r18, r22
    149a:	11 24       	eor	r1, r1
    149c:	30 19       	sub	r19, r0
    149e:	30 5d       	subi	r19, 0xD0	; 208
    14a0:	31 93       	st	Z+, r19
    14a2:	de f6       	brtc	.-74     	; 0x145a <__ultoa_invert+0xe>
    14a4:	cf 01       	movw	r24, r30
    14a6:	08 95       	ret
    14a8:	46 2f       	mov	r20, r22
    14aa:	47 70       	andi	r20, 0x07	; 7
    14ac:	40 5d       	subi	r20, 0xD0	; 208
    14ae:	41 93       	st	Z+, r20
    14b0:	b3 e0       	ldi	r27, 0x03	; 3
    14b2:	0f d0       	rcall	.+30     	; 0x14d2 <__ultoa_invert+0x86>
    14b4:	c9 f7       	brne	.-14     	; 0x14a8 <__ultoa_invert+0x5c>
    14b6:	f6 cf       	rjmp	.-20     	; 0x14a4 <__ultoa_invert+0x58>
    14b8:	46 2f       	mov	r20, r22
    14ba:	4f 70       	andi	r20, 0x0F	; 15
    14bc:	40 5d       	subi	r20, 0xD0	; 208
    14be:	4a 33       	cpi	r20, 0x3A	; 58
    14c0:	18 f0       	brcs	.+6      	; 0x14c8 <__ultoa_invert+0x7c>
    14c2:	49 5d       	subi	r20, 0xD9	; 217
    14c4:	31 fd       	sbrc	r19, 1
    14c6:	40 52       	subi	r20, 0x20	; 32
    14c8:	41 93       	st	Z+, r20
    14ca:	02 d0       	rcall	.+4      	; 0x14d0 <__ultoa_invert+0x84>
    14cc:	a9 f7       	brne	.-22     	; 0x14b8 <__ultoa_invert+0x6c>
    14ce:	ea cf       	rjmp	.-44     	; 0x14a4 <__ultoa_invert+0x58>
    14d0:	b4 e0       	ldi	r27, 0x04	; 4
    14d2:	a6 95       	lsr	r26
    14d4:	97 95       	ror	r25
    14d6:	87 95       	ror	r24
    14d8:	77 95       	ror	r23
    14da:	67 95       	ror	r22
    14dc:	ba 95       	dec	r27
    14de:	c9 f7       	brne	.-14     	; 0x14d2 <__ultoa_invert+0x86>
    14e0:	00 97       	sbiw	r24, 0x00	; 0
    14e2:	61 05       	cpc	r22, r1
    14e4:	71 05       	cpc	r23, r1
    14e6:	08 95       	ret
    14e8:	9b 01       	movw	r18, r22
    14ea:	ac 01       	movw	r20, r24
    14ec:	0a 2e       	mov	r0, r26
    14ee:	06 94       	lsr	r0
    14f0:	57 95       	ror	r21
    14f2:	47 95       	ror	r20
    14f4:	37 95       	ror	r19
    14f6:	27 95       	ror	r18
    14f8:	ba 95       	dec	r27
    14fa:	c9 f7       	brne	.-14     	; 0x14ee <__ultoa_invert+0xa2>
    14fc:	62 0f       	add	r22, r18
    14fe:	73 1f       	adc	r23, r19
    1500:	84 1f       	adc	r24, r20
    1502:	95 1f       	adc	r25, r21
    1504:	a0 1d       	adc	r26, r0
    1506:	08 95       	ret

00001508 <_exit>:
    1508:	f8 94       	cli

0000150a <__stop_program>:
    150a:	ff cf       	rjmp	.-2      	; 0x150a <__stop_program>
