
project4.elf:     file format elf32-avr

Sections:
Idx Name          Size      VMA       LMA       File off  Algn
  0 .text         000019aa  00000000  00000000  00000094  2**1
                  CONTENTS, ALLOC, LOAD, READONLY, CODE
  1 .data         00000042  00800060  000019aa  00001a3e  2**0
                  CONTENTS, ALLOC, LOAD, DATA
  2 .bss          0000008e  008000a2  008000a2  00001a80  2**0
                  ALLOC
  3 .comment      0000005c  00000000  00000000  00001a80  2**0
                  CONTENTS, READONLY
  4 .note.gnu.avr.deviceinfo 0000003c  00000000  00000000  00001adc  2**2
                  CONTENTS, READONLY
  5 .debug_aranges 00000200  00000000  00000000  00001b18  2**3
                  CONTENTS, READONLY, DEBUGGING
  6 .debug_info   00001a9e  00000000  00000000  00001d18  2**0
                  CONTENTS, READONLY, DEBUGGING
  7 .debug_abbrev 00000c5f  00000000  00000000  000037b6  2**0
                  CONTENTS, READONLY, DEBUGGING
  8 .debug_line   00000dfc  00000000  00000000  00004415  2**0
                  CONTENTS, READONLY, DEBUGGING
  9 .debug_frame  00000454  00000000  00000000  00005214  2**2
                  CONTENTS, READONLY, DEBUGGING
 10 .debug_str    00000650  00000000  00000000  00005668  2**0
                  CONTENTS, READONLY, DEBUGGING
 11 .debug_loc    00000e46  00000000  00000000  00005cb8  2**0
                  CONTENTS, READONLY, DEBUGGING
 12 .debug_ranges 00000160  00000000  00000000  00006afe  2**0
                  CONTENTS, READONLY, DEBUGGING

Disassembly of section .text:

00000000 <__vectors>:
       0:	0c 94 b1 00 	jmp	0x162	; 0x162 <__ctors_end>
       4:	0c 94 ce 00 	jmp	0x19c	; 0x19c <__bad_interrupt>
       8:	0c 94 ce 00 	jmp	0x19c	; 0x19c <__bad_interrupt>
       c:	0c 94 ce 00 	jmp	0x19c	; 0x19c <__bad_interrupt>
      10:	0c 94 ce 00 	jmp	0x19c	; 0x19c <__bad_interrupt>
      14:	0c 94 ce 00 	jmp	0x19c	; 0x19c <__bad_interrupt>
      18:	0c 94 ce 00 	jmp	0x19c	; 0x19c <__bad_interrupt>
      1c:	0c 94 ce 00 	jmp	0x19c	; 0x19c <__bad_interrupt>
      20:	0c 94 ce 00 	jmp	0x19c	; 0x19c <__bad_interrupt>
      24:	0c 94 ce 00 	jmp	0x19c	; 0x19c <__bad_interrupt>
      28:	0c 94 ce 00 	jmp	0x19c	; 0x19c <__bad_interrupt>
      2c:	0c 94 ce 00 	jmp	0x19c	; 0x19c <__bad_interrupt>
      30:	0c 94 ce 00 	jmp	0x19c	; 0x19c <__bad_interrupt>
      34:	0c 94 46 02 	jmp	0x48c	; 0x48c <__vector_13>
      38:	0c 94 ce 00 	jmp	0x19c	; 0x19c <__bad_interrupt>
      3c:	0c 94 ce 00 	jmp	0x19c	; 0x19c <__bad_interrupt>
      40:	0c 94 ce 00 	jmp	0x19c	; 0x19c <__bad_interrupt>
      44:	0c 94 ce 00 	jmp	0x19c	; 0x19c <__bad_interrupt>
      48:	0c 94 ce 00 	jmp	0x19c	; 0x19c <__bad_interrupt>
      4c:	0c 94 ce 00 	jmp	0x19c	; 0x19c <__bad_interrupt>
      50:	0c 94 ce 00 	jmp	0x19c	; 0x19c <__bad_interrupt>

00000054 <__trampolines_end>:
      54:	6e 61       	ori	r22, 0x1E	; 30
      56:	6e 00       	.word	0x006e	; ????

00000058 <__c.2332>:
      58:	69 6e 66 00 00 40 7a 10 f3 5a 00 a0 72 4e 18 09     inf..@z..Z..rN..
      68:	00 10 a5 d4 e8 00 00 e8 76 48 17 00 00 e4 0b 54     ........vH.....T
      78:	02 00 00 ca 9a 3b 00 00 00 e1 f5 05 00 00 80 96     .....;..........
      88:	98 00 00 00 40 42 0f 00 00 00 a0 86 01 00 00 00     ....@B..........
      98:	10 27 00 00 00 00 e8 03 00 00 00 00 64 00 00 00     .'..........d...
      a8:	00 00 0a 00 00 00 00 00 01 00 00 00 00 00 2c 76     ..............,v
      b8:	d8 88 dc 67 4f 08 23 df c1 df ae 59 e1 b1 b7 96     ...gO.#....Y....
      c8:	e5 e3 e4 53 c6 3a e6 51 99 76 96 e8 e6 c2 84 26     ...S.:.Q.v.....&
      d8:	eb 89 8c 9b 62 ed 40 7c 6f fc ef bc 9c 9f 40 f2     ....b.@|o.....@.
      e8:	ba a5 6f a5 f4 90 05 5a 2a f7 5c 93 6b 6c f9 67     ..o....Z*.\.kl.g
      f8:	6d c1 1b fc e0 e4 0d 47 fe f5 20 e6 b5 00 d0 ed     m......G.. .....
     108:	90 2e 03 00 94 35 77 05 00 80 84 1e 08 00 00 20     .....5w........ 
     118:	4e 0a 00 00 00 c8 0c 33 33 33 33 0f 98 6e 12 83     N......3333..n..
     128:	11 41 ef 8d 21 14 89 3b e6 55 16 cf fe e6 db 18     .A..!..;.U......
     138:	d1 84 4b 38 1b f7 7c 1d 90 1d a4 bb e4 24 20 32     ..K8..|......$ 2
     148:	84 72 5e 22 81 00 c9 f1 24 ec a1 e5 3d 27           .r^"....$...='

00000156 <__c.2474>:
     156:	63 64 69 6e 6f 70 73 75 78 58 5b 00                 cdinopsuxX[.

00000162 <__ctors_end>:
     162:	11 24       	eor	r1, r1
     164:	1f be       	out	0x3f, r1	; 63
     166:	cf e5       	ldi	r28, 0x5F	; 95
     168:	d8 e0       	ldi	r29, 0x08	; 8
     16a:	de bf       	out	0x3e, r29	; 62
     16c:	cd bf       	out	0x3d, r28	; 61

0000016e <__do_copy_data>:
     16e:	10 e0       	ldi	r17, 0x00	; 0
     170:	a0 e6       	ldi	r26, 0x60	; 96
     172:	b0 e0       	ldi	r27, 0x00	; 0
     174:	ea ea       	ldi	r30, 0xAA	; 170
     176:	f9 e1       	ldi	r31, 0x19	; 25
     178:	02 c0       	rjmp	.+4      	; 0x17e <__do_copy_data+0x10>
     17a:	05 90       	lpm	r0, Z+
     17c:	0d 92       	st	X+, r0
     17e:	a2 3a       	cpi	r26, 0xA2	; 162
     180:	b1 07       	cpc	r27, r17
     182:	d9 f7       	brne	.-10     	; 0x17a <__do_copy_data+0xc>

00000184 <__do_clear_bss>:
     184:	21 e0       	ldi	r18, 0x01	; 1
     186:	a2 ea       	ldi	r26, 0xA2	; 162
     188:	b0 e0       	ldi	r27, 0x00	; 0
     18a:	01 c0       	rjmp	.+2      	; 0x18e <.do_clear_bss_start>

0000018c <.do_clear_bss_loop>:
     18c:	1d 92       	st	X+, r1

0000018e <.do_clear_bss_start>:
     18e:	a0 33       	cpi	r26, 0x30	; 48
     190:	b2 07       	cpc	r27, r18
     192:	e1 f7       	brne	.-8      	; 0x18c <.do_clear_bss_loop>
     194:	0e 94 81 02 	call	0x502	; 0x502 <main>
     198:	0c 94 d3 0c 	jmp	0x19a6	; 0x19a6 <_exit>

0000019c <__bad_interrupt>:
     19c:	0c 94 00 00 	jmp	0	; 0x0 <__vectors>

000001a0 <avr_wait>:
     1a0:	9c 01       	movw	r18, r24
     1a2:	83 e0       	ldi	r24, 0x03	; 3
     1a4:	83 bf       	out	0x33, r24	; 51
     1a6:	83 e8       	ldi	r24, 0x83	; 131
     1a8:	07 c0       	rjmp	.+14     	; 0x1b8 <avr_wait+0x18>
     1aa:	82 bf       	out	0x32, r24	; 50
     1ac:	98 b7       	in	r25, 0x38	; 56
     1ae:	91 60       	ori	r25, 0x01	; 1
     1b0:	98 bf       	out	0x38, r25	; 56
     1b2:	08 b6       	in	r0, 0x38	; 56
     1b4:	00 fe       	sbrs	r0, 0
     1b6:	fd cf       	rjmp	.-6      	; 0x1b2 <avr_wait+0x12>
     1b8:	21 50       	subi	r18, 0x01	; 1
     1ba:	31 09       	sbc	r19, r1
     1bc:	b0 f7       	brcc	.-20     	; 0x1aa <avr_wait+0xa>
     1be:	13 be       	out	0x33, r1	; 51
     1c0:	08 95       	ret

000001c2 <bmp280_verify>:
	bmp280_get_coefficents();
	bmp280_set_config();
	return 1;
}

int bmp280_verify(){
     1c2:	cf 93       	push	r28
static signed short dig_T2;
static signed short dig_T3;

static unsigned char get_chip_id(){
	unsigned char temp;
	twi_start();
     1c4:	0e 94 dd 02 	call	0x5ba	; 0x5ba <twi_start>
	twi_write_addr_w(BMP_ADDR_W);
     1c8:	8e ee       	ldi	r24, 0xEE	; 238
     1ca:	0e 94 e3 02 	call	0x5c6	; 0x5c6 <twi_write_addr_w>
	twi_write_byte(CHIP_ID_REG);
     1ce:	80 ed       	ldi	r24, 0xD0	; 208
     1d0:	0e 94 ea 02 	call	0x5d4	; 0x5d4 <twi_write_byte>
	twi_start();
     1d4:	0e 94 dd 02 	call	0x5ba	; 0x5ba <twi_start>
	twi_write_addr_r(BMP_ADDR_R);
     1d8:	8f ee       	ldi	r24, 0xEF	; 239
     1da:	0e 94 f1 02 	call	0x5e2	; 0x5e2 <twi_write_addr_r>
	temp = twi_read_last_byte();
     1de:	0e 94 ff 02 	call	0x5fe	; 0x5fe <twi_read_last_byte>
     1e2:	c8 2f       	mov	r28, r24
	twi_stop();
     1e4:	0e 94 06 03 	call	0x60c	; 0x60c <twi_stop>
     1e8:	81 e0       	ldi	r24, 0x01	; 1
     1ea:	90 e0       	ldi	r25, 0x00	; 0
     1ec:	c8 35       	cpi	r28, 0x58	; 88
     1ee:	11 f0       	breq	.+4      	; 0x1f4 <bmp280_verify+0x32>
     1f0:	80 e0       	ldi	r24, 0x00	; 0
     1f2:	90 e0       	ldi	r25, 0x00	; 0
int bmp280_verify(){
	if(get_chip_id() == ACTUAL_CHIP_ID){
		return 1;
	}
	return 0;
}
     1f4:	cf 91       	pop	r28
     1f6:	08 95       	ret

000001f8 <bmp280_get_coefficents>:

void bmp280_get_coefficents(){
	dig_T1 = twi_read16(dig_T1_REG, BMP_ADDR_W, BMP_ADDR_R);
     1f8:	4f ee       	ldi	r20, 0xEF	; 239
     1fa:	6e ee       	ldi	r22, 0xEE	; 238
     1fc:	88 e8       	ldi	r24, 0x88	; 136
     1fe:	0e 94 09 03 	call	0x612	; 0x612 <twi_read16>
     202:	90 93 a7 00 	sts	0x00A7, r25	; 0x8000a7 <dig_T1+0x1>
     206:	80 93 a6 00 	sts	0x00A6, r24	; 0x8000a6 <dig_T1>
	dig_T2 = (signed short)twi_read16(dig_T2_REG, BMP_ADDR_W, BMP_ADDR_R);
     20a:	4f ee       	ldi	r20, 0xEF	; 239
     20c:	6e ee       	ldi	r22, 0xEE	; 238
     20e:	8a e8       	ldi	r24, 0x8A	; 138
     210:	0e 94 09 03 	call	0x612	; 0x612 <twi_read16>
     214:	90 93 a5 00 	sts	0x00A5, r25	; 0x8000a5 <dig_T2+0x1>
     218:	80 93 a4 00 	sts	0x00A4, r24	; 0x8000a4 <dig_T2>
	dig_T3 = (signed short)twi_read16(dig_T3_REG, BMP_ADDR_W, BMP_ADDR_R);
     21c:	4f ee       	ldi	r20, 0xEF	; 239
     21e:	6e ee       	ldi	r22, 0xEE	; 238
     220:	8c e8       	ldi	r24, 0x8C	; 140
     222:	0e 94 09 03 	call	0x612	; 0x612 <twi_read16>
     226:	90 93 a3 00 	sts	0x00A3, r25	; 0x8000a3 <__data_end+0x1>
     22a:	80 93 a2 00 	sts	0x00A2, r24	; 0x8000a2 <__data_end>
     22e:	08 95       	ret

00000230 <bmp280_set_config>:
}

void bmp280_set_config(){
	twi_start();
     230:	0e 94 dd 02 	call	0x5ba	; 0x5ba <twi_start>
	twi_write_addr_w(BMP_ADDR_W);
     234:	8e ee       	ldi	r24, 0xEE	; 238
     236:	0e 94 e3 02 	call	0x5c6	; 0x5c6 <twi_write_addr_w>
	twi_write_byte(CONFIG_REG);
     23a:	84 ef       	ldi	r24, 0xF4	; 244
     23c:	0e 94 ea 02 	call	0x5d4	; 0x5d4 <twi_write_byte>
	twi_write_byte(CONFIG_SETTINGS);
     240:	83 e9       	ldi	r24, 0x93	; 147
     242:	0e 94 ea 02 	call	0x5d4	; 0x5d4 <twi_write_byte>
	twi_stop();
     246:	0e 94 06 03 	call	0x60c	; 0x60c <twi_stop>
     24a:	08 95       	ret

0000024c <bmp280_init>:
	twi_stop();
	return temp;
}

int bmp280_init(){
	if(!bmp280_verify()){
     24c:	0e 94 e1 00 	call	0x1c2	; 0x1c2 <bmp280_verify>
     250:	00 97       	sbiw	r24, 0x00	; 0
     252:	31 f0       	breq	.+12     	; 0x260 <bmp280_init+0x14>
		return 0;
	}
	bmp280_get_coefficents();
     254:	0e 94 fc 00 	call	0x1f8	; 0x1f8 <bmp280_get_coefficents>
	bmp280_set_config();
     258:	0e 94 18 01 	call	0x230	; 0x230 <bmp280_set_config>
	return 1;
     25c:	81 e0       	ldi	r24, 0x01	; 1
     25e:	90 e0       	ldi	r25, 0x00	; 0
}
     260:	08 95       	ret

00000262 <output>:
}

void
lcd_put(char c)
{
	write(c, 1);
     262:	66 23       	and	r22, r22
     264:	11 f0       	breq	.+4      	; 0x26a <output+0x8>
     266:	c0 9a       	sbi	0x18, 0	; 24
     268:	01 c0       	rjmp	.+2      	; 0x26c <output+0xa>
     26a:	c0 98       	cbi	0x18, 0	; 24
     26c:	c1 98       	cbi	0x18, 1	; 24
     26e:	8b bb       	out	0x1b, r24	; 27
     270:	8f ef       	ldi	r24, 0xFF	; 255
     272:	8a bb       	out	0x1a, r24	; 26
     274:	c2 9a       	sbi	0x18, 2	; 24
     276:	00 00       	nop
     278:	00 00       	nop
     27a:	00 00       	nop
     27c:	c2 98       	cbi	0x18, 2	; 24
     27e:	08 95       	ret

00000280 <write>:
     280:	c0 98       	cbi	0x18, 0	; 24
     282:	c1 9a       	sbi	0x18, 1	; 24
     284:	1a ba       	out	0x1a, r1	; 26
     286:	99 b3       	in	r25, 0x19	; 25
     288:	c2 9a       	sbi	0x18, 2	; 24
     28a:	00 00       	nop
     28c:	00 00       	nop
     28e:	00 00       	nop
     290:	1a ba       	out	0x1a, r1	; 26
     292:	99 b3       	in	r25, 0x19	; 25
     294:	c2 98       	cbi	0x18, 2	; 24
     296:	99 23       	and	r25, r25
     298:	9c f3       	brlt	.-26     	; 0x280 <write>
     29a:	0e 94 31 01 	call	0x262	; 0x262 <output>
     29e:	08 95       	ret

000002a0 <lcd_init>:
     2a0:	b8 9a       	sbi	0x17, 0	; 23
     2a2:	b9 9a       	sbi	0x17, 1	; 23
     2a4:	ba 9a       	sbi	0x17, 2	; 23
     2a6:	80 e1       	ldi	r24, 0x10	; 16
     2a8:	90 e0       	ldi	r25, 0x00	; 0
     2aa:	0e 94 d0 00 	call	0x1a0	; 0x1a0 <avr_wait>
     2ae:	60 e0       	ldi	r22, 0x00	; 0
     2b0:	80 e3       	ldi	r24, 0x30	; 48
     2b2:	0e 94 31 01 	call	0x262	; 0x262 <output>
     2b6:	85 e0       	ldi	r24, 0x05	; 5
     2b8:	90 e0       	ldi	r25, 0x00	; 0
     2ba:	0e 94 d0 00 	call	0x1a0	; 0x1a0 <avr_wait>
     2be:	60 e0       	ldi	r22, 0x00	; 0
     2c0:	80 e3       	ldi	r24, 0x30	; 48
     2c2:	0e 94 31 01 	call	0x262	; 0x262 <output>
     2c6:	81 e0       	ldi	r24, 0x01	; 1
     2c8:	90 e0       	ldi	r25, 0x00	; 0
     2ca:	0e 94 d0 00 	call	0x1a0	; 0x1a0 <avr_wait>
     2ce:	60 e0       	ldi	r22, 0x00	; 0
     2d0:	8c e3       	ldi	r24, 0x3C	; 60
     2d2:	0e 94 40 01 	call	0x280	; 0x280 <write>
     2d6:	60 e0       	ldi	r22, 0x00	; 0
     2d8:	8c e0       	ldi	r24, 0x0C	; 12
     2da:	0e 94 40 01 	call	0x280	; 0x280 <write>
     2de:	60 e0       	ldi	r22, 0x00	; 0
     2e0:	86 e0       	ldi	r24, 0x06	; 6
     2e2:	0e 94 40 01 	call	0x280	; 0x280 <write>
     2e6:	60 e0       	ldi	r22, 0x00	; 0
     2e8:	81 e0       	ldi	r24, 0x01	; 1
     2ea:	0e 94 40 01 	call	0x280	; 0x280 <write>
     2ee:	08 95       	ret

000002f0 <lcd_pos>:
     2f0:	cf 93       	push	r28
     2f2:	c6 2f       	mov	r28, r22
     2f4:	98 e2       	ldi	r25, 0x28	; 40
     2f6:	89 9f       	mul	r24, r25
     2f8:	c0 0d       	add	r28, r0
     2fa:	11 24       	eor	r1, r1
     2fc:	60 e0       	ldi	r22, 0x00	; 0
     2fe:	82 e0       	ldi	r24, 0x02	; 2
     300:	0e 94 40 01 	call	0x280	; 0x280 <write>
     304:	cc 23       	and	r28, r28
     306:	31 f0       	breq	.+12     	; 0x314 <lcd_pos+0x24>
     308:	60 e0       	ldi	r22, 0x00	; 0
     30a:	84 e1       	ldi	r24, 0x14	; 20
     30c:	0e 94 40 01 	call	0x280	; 0x280 <write>
     310:	c1 50       	subi	r28, 0x01	; 1
     312:	d1 f7       	brne	.-12     	; 0x308 <lcd_pos+0x18>
     314:	cf 91       	pop	r28
     316:	08 95       	ret

00000318 <lcd_puts>:
}

void
lcd_puts(const char *s)
{
     318:	cf 93       	push	r28
     31a:	df 93       	push	r29
	char c;
	while ((c = *(s++)) != 0) {
     31c:	ec 01       	movw	r28, r24
     31e:	21 96       	adiw	r28, 0x01	; 1
     320:	fc 01       	movw	r30, r24
     322:	80 81       	ld	r24, Z
     324:	88 23       	and	r24, r24
     326:	31 f0       	breq	.+12     	; 0x334 <lcd_puts+0x1c>
		write(c, 1);
     328:	61 e0       	ldi	r22, 0x01	; 1
     32a:	0e 94 40 01 	call	0x280	; 0x280 <write>

void
lcd_puts(const char *s)
{
	char c;
	while ((c = *(s++)) != 0) {
     32e:	89 91       	ld	r24, Y+
     330:	81 11       	cpse	r24, r1
     332:	fa cf       	rjmp	.-12     	; 0x328 <lcd_puts+0x10>
		write(c, 1);
	}
}
     334:	df 91       	pop	r29
     336:	cf 91       	pop	r28
     338:	08 95       	ret

0000033a <clear_rx_buffer>:

void clear_tx_buffer(){
	for(int i = 0; i < TX_BUFFER_SIZE; ++i){
		tx_buffer[i] = 0;
	}
}
     33a:	ec ea       	ldi	r30, 0xAC	; 172
     33c:	f0 e0       	ldi	r31, 0x00	; 0
     33e:	8c ee       	ldi	r24, 0xEC	; 236
     340:	90 e0       	ldi	r25, 0x00	; 0
     342:	11 92       	st	Z+, r1
     344:	e8 17       	cp	r30, r24
     346:	f9 07       	cpc	r31, r25
     348:	e1 f7       	brne	.-8      	; 0x342 <clear_rx_buffer+0x8>
     34a:	08 95       	ret

0000034c <send_tx_char>:
void send_tx_char(char ch)
{
	while (! (UCSRA & (1<<UDRE)));  /* Wait for empty transmit buffer */
     34c:	5d 9b       	sbis	0x0b, 5	; 11
     34e:	fe cf       	rjmp	.-4      	; 0x34c <send_tx_char>
	UDR = ch ;
     350:	8c b9       	out	0x0c, r24	; 12
     352:	08 95       	ret

00000354 <send_tx_string>:
}
void send_tx_string(char s[]){
     354:	0f 93       	push	r16
     356:	1f 93       	push	r17
     358:	cf 93       	push	r28
	int i; char cur;
	i=0;
	cur = s[i];
	while(cur != '\0'){
     35a:	fc 01       	movw	r30, r24
     35c:	20 81       	ld	r18, Z
     35e:	22 23       	and	r18, r18
     360:	49 f0       	breq	.+18     	; 0x374 <send_tx_string+0x20>
     362:	8c 01       	movw	r16, r24
		cur = s[i];
     364:	f8 01       	movw	r30, r16
     366:	c1 91       	ld	r28, Z+
     368:	8f 01       	movw	r16, r30
		send_tx_char(s[i]);
     36a:	8c 2f       	mov	r24, r28
     36c:	0e 94 a6 01 	call	0x34c	; 0x34c <send_tx_char>
}
void send_tx_string(char s[]){
	int i; char cur;
	i=0;
	cur = s[i];
	while(cur != '\0'){
     370:	c1 11       	cpse	r28, r1
     372:	f8 cf       	rjmp	.-16     	; 0x364 <send_tx_string+0x10>
		cur = s[i];
		send_tx_char(s[i]);
		i++;
	}
}
     374:	cf 91       	pop	r28
     376:	1f 91       	pop	r17
     378:	0f 91       	pop	r16
     37a:	08 95       	ret

0000037c <read_command>:



void read_command(){
     37c:	0f 93       	push	r16
     37e:	1f 93       	push	r17
     380:	cf 93       	push	r28
     382:	df 93       	push	r29
     384:	cd b7       	in	r28, 0x3d	; 61
     386:	de b7       	in	r29, 0x3e	; 62
     388:	2a 97       	sbiw	r28, 0x0a	; 10
     38a:	0f b6       	in	r0, 0x3f	; 63
     38c:	f8 94       	cli
     38e:	de bf       	out	0x3e, r29	; 62
     390:	0f be       	out	0x3f, r0	; 63
     392:	cd bf       	out	0x3d, r28	; 61
	if(rx_buffer[0] == 'p'){
     394:	80 91 ac 00 	lds	r24, 0x00AC	; 0x8000ac <rx_buffer>
     398:	80 37       	cpi	r24, 0x70	; 112
     39a:	b1 f4       	brne	.+44     	; 0x3c8 <read_command+0x4c>
		if(pause == 1){
     39c:	80 91 a8 00 	lds	r24, 0x00A8	; 0x8000a8 <pause>
     3a0:	90 91 a9 00 	lds	r25, 0x00A9	; 0x8000a9 <pause+0x1>
     3a4:	81 30       	cpi	r24, 0x01	; 1
     3a6:	91 05       	cpc	r25, r1
     3a8:	29 f4       	brne	.+10     	; 0x3b4 <read_command+0x38>
			pause = 0;
     3aa:	10 92 a9 00 	sts	0x00A9, r1	; 0x8000a9 <pause+0x1>
     3ae:	10 92 a8 00 	sts	0x00A8, r1	; 0x8000a8 <pause>
     3b2:	61 c0       	rjmp	.+194    	; 0x476 <__EEPROM_REGION_LENGTH__+0x76>
		}
		else if(pause == 0){
     3b4:	89 2b       	or	r24, r25
     3b6:	09 f0       	breq	.+2      	; 0x3ba <read_command+0x3e>
     3b8:	5e c0       	rjmp	.+188    	; 0x476 <__EEPROM_REGION_LENGTH__+0x76>
			pause = 1;
     3ba:	81 e0       	ldi	r24, 0x01	; 1
     3bc:	90 e0       	ldi	r25, 0x00	; 0
     3be:	90 93 a9 00 	sts	0x00A9, r25	; 0x8000a9 <pause+0x1>
     3c2:	80 93 a8 00 	sts	0x00A8, r24	; 0x8000a8 <pause>
     3c6:	57 c0       	rjmp	.+174    	; 0x476 <__EEPROM_REGION_LENGTH__+0x76>
		}
	}
	else if(rx_buffer[0] == 'n'){
     3c8:	8e 36       	cpi	r24, 0x6E	; 110
     3ca:	09 f0       	breq	.+2      	; 0x3ce <read_command+0x52>
     3cc:	50 c0       	rjmp	.+160    	; 0x46e <__EEPROM_REGION_LENGTH__+0x6e>
		int i;
		char temp[8];
		temp[0] = rx_buffer[1]; temp[1] = rx_buffer[2]; temp[2] = '\0';
     3ce:	ec ea       	ldi	r30, 0xAC	; 172
     3d0:	f0 e0       	ldi	r31, 0x00	; 0
     3d2:	81 81       	ldd	r24, Z+1	; 0x01
     3d4:	89 83       	std	Y+1, r24	; 0x01
     3d6:	82 81       	ldd	r24, Z+2	; 0x02
     3d8:	8a 83       	std	Y+2, r24	; 0x02
     3da:	1b 82       	std	Y+3, r1	; 0x03
		sscanf(temp, "%d", &i);
     3dc:	ce 01       	movw	r24, r28
     3de:	09 96       	adiw	r24, 0x09	; 9
     3e0:	9f 93       	push	r25
     3e2:	8f 93       	push	r24
     3e4:	80 e6       	ldi	r24, 0x60	; 96
     3e6:	90 e0       	ldi	r25, 0x00	; 0
     3e8:	9f 93       	push	r25
     3ea:	8f 93       	push	r24
     3ec:	ce 01       	movw	r24, r28
     3ee:	01 96       	adiw	r24, 0x01	; 1
     3f0:	9f 93       	push	r25
     3f2:	8f 93       	push	r24
     3f4:	0e 94 2b 09 	call	0x1256	; 0x1256 <sscanf>
		if(check_bounds(i)){
     3f8:	89 85       	ldd	r24, Y+9	; 0x09
     3fa:	9a 85       	ldd	r25, Y+10	; 0x0a
     3fc:	0e 94 d1 02 	call	0x5a2	; 0x5a2 <check_bounds>
     400:	0f 90       	pop	r0
     402:	0f 90       	pop	r0
     404:	0f 90       	pop	r0
     406:	0f 90       	pop	r0
     408:	0f 90       	pop	r0
     40a:	0f 90       	pop	r0
     40c:	89 2b       	or	r24, r25
     40e:	51 f1       	breq	.+84     	; 0x464 <__EEPROM_REGION_LENGTH__+0x64>
			float val;
			val = get_value(i);
     410:	89 85       	ldd	r24, Y+9	; 0x09
     412:	9a 85       	ldd	r25, Y+10	; 0x0a
     414:	0e 94 ae 02 	call	0x55c	; 0x55c <get_value>
     418:	bc 01       	movw	r22, r24
     41a:	80 e0       	ldi	r24, 0x00	; 0
     41c:	90 e0       	ldi	r25, 0x00	; 0
     41e:	0e 94 9d 03 	call	0x73a	; 0x73a <__floatunsisf>
			val /= 100;
			sprintf(temp,"%.2f", val);
     422:	20 e0       	ldi	r18, 0x00	; 0
     424:	30 e0       	ldi	r19, 0x00	; 0
     426:	48 ec       	ldi	r20, 0xC8	; 200
     428:	52 e4       	ldi	r21, 0x42	; 66
     42a:	0e 94 2b 03 	call	0x656	; 0x656 <__divsf3>
     42e:	9f 93       	push	r25
     430:	8f 93       	push	r24
     432:	7f 93       	push	r23
     434:	6f 93       	push	r22
     436:	83 e6       	ldi	r24, 0x63	; 99
     438:	90 e0       	ldi	r25, 0x00	; 0
     43a:	9f 93       	push	r25
     43c:	8f 93       	push	r24
     43e:	8e 01       	movw	r16, r28
     440:	0f 5f       	subi	r16, 0xFF	; 255
     442:	1f 4f       	sbci	r17, 0xFF	; 255
     444:	1f 93       	push	r17
     446:	0f 93       	push	r16
     448:	0e 94 09 09 	call	0x1212	; 0x1212 <sprintf>
			send_tx_string(temp);
     44c:	c8 01       	movw	r24, r16
     44e:	0e 94 aa 01 	call	0x354	; 0x354 <send_tx_string>
			send_tx_char('\n');
     452:	8a e0       	ldi	r24, 0x0A	; 10
     454:	0e 94 a6 01 	call	0x34c	; 0x34c <send_tx_char>
     458:	0f b6       	in	r0, 0x3f	; 63
     45a:	f8 94       	cli
     45c:	de bf       	out	0x3e, r29	; 62
     45e:	0f be       	out	0x3f, r0	; 63
     460:	cd bf       	out	0x3d, r28	; 61
     462:	09 c0       	rjmp	.+18     	; 0x476 <__EEPROM_REGION_LENGTH__+0x76>
		}
		else{
			send_tx_string("INVALID INDEX \n");
     464:	88 e6       	ldi	r24, 0x68	; 104
     466:	90 e0       	ldi	r25, 0x00	; 0
     468:	0e 94 aa 01 	call	0x354	; 0x354 <send_tx_string>
     46c:	04 c0       	rjmp	.+8      	; 0x476 <__EEPROM_REGION_LENGTH__+0x76>
		}
		
	}
	else{
		send_tx_string("INVALID COMMAND \n");
     46e:	88 e7       	ldi	r24, 0x78	; 120
     470:	90 e0       	ldi	r25, 0x00	; 0
     472:	0e 94 aa 01 	call	0x354	; 0x354 <send_tx_string>
	}
}
     476:	2a 96       	adiw	r28, 0x0a	; 10
     478:	0f b6       	in	r0, 0x3f	; 63
     47a:	f8 94       	cli
     47c:	de bf       	out	0x3e, r29	; 62
     47e:	0f be       	out	0x3f, r0	; 63
     480:	cd bf       	out	0x3d, r28	; 61
     482:	df 91       	pop	r29
     484:	cf 91       	pop	r28
     486:	1f 91       	pop	r17
     488:	0f 91       	pop	r16
     48a:	08 95       	ret

0000048c <__vector_13>:

ISR(USART_RXC_vect)
{
     48c:	1f 92       	push	r1
     48e:	0f 92       	push	r0
     490:	0f b6       	in	r0, 0x3f	; 63
     492:	0f 92       	push	r0
     494:	11 24       	eor	r1, r1
     496:	2f 93       	push	r18
     498:	3f 93       	push	r19
     49a:	4f 93       	push	r20
     49c:	5f 93       	push	r21
     49e:	6f 93       	push	r22
     4a0:	7f 93       	push	r23
     4a2:	8f 93       	push	r24
     4a4:	9f 93       	push	r25
     4a6:	af 93       	push	r26
     4a8:	bf 93       	push	r27
     4aa:	ef 93       	push	r30
     4ac:	ff 93       	push	r31
	char cur = UDR;
     4ae:	2c b1       	in	r18, 0x0c	; 12
	rx_buffer[rx_pos] = cur;
     4b0:	80 91 aa 00 	lds	r24, 0x00AA	; 0x8000aa <rx_pos>
     4b4:	90 91 ab 00 	lds	r25, 0x00AB	; 0x8000ab <rx_pos+0x1>
     4b8:	fc 01       	movw	r30, r24
     4ba:	e4 55       	subi	r30, 0x54	; 84
     4bc:	ff 4f       	sbci	r31, 0xFF	; 255
     4be:	20 83       	st	Z, r18
	if(cur == '\n'){
     4c0:	2a 30       	cpi	r18, 0x0A	; 10
     4c2:	49 f4       	brne	.+18     	; 0x4d6 <__vector_13+0x4a>
		rx_pos = 0;
     4c4:	10 92 ab 00 	sts	0x00AB, r1	; 0x8000ab <rx_pos+0x1>
     4c8:	10 92 aa 00 	sts	0x00AA, r1	; 0x8000aa <rx_pos>
		read_command();
     4cc:	0e 94 be 01 	call	0x37c	; 0x37c <read_command>
		clear_rx_buffer();
     4d0:	0e 94 9d 01 	call	0x33a	; 0x33a <clear_rx_buffer>
     4d4:	05 c0       	rjmp	.+10     	; 0x4e0 <__vector_13+0x54>
	}
	else{
		rx_pos++;
     4d6:	01 96       	adiw	r24, 0x01	; 1
     4d8:	90 93 ab 00 	sts	0x00AB, r25	; 0x8000ab <rx_pos+0x1>
     4dc:	80 93 aa 00 	sts	0x00AA, r24	; 0x8000aa <rx_pos>
	}
}
     4e0:	ff 91       	pop	r31
     4e2:	ef 91       	pop	r30
     4e4:	bf 91       	pop	r27
     4e6:	af 91       	pop	r26
     4e8:	9f 91       	pop	r25
     4ea:	8f 91       	pop	r24
     4ec:	7f 91       	pop	r23
     4ee:	6f 91       	pop	r22
     4f0:	5f 91       	pop	r21
     4f2:	4f 91       	pop	r20
     4f4:	3f 91       	pop	r19
     4f6:	2f 91       	pop	r18
     4f8:	0f 90       	pop	r0
     4fa:	0f be       	out	0x3f, r0	; 63
     4fc:	0f 90       	pop	r0
     4fe:	1f 90       	pop	r1
     500:	18 95       	reti

00000502 <main>:


int main(void)
{
	lcd_init();
     502:	0e 94 50 01 	call	0x2a0	; 0x2a0 <lcd_init>
	twi_init();
     506:	0e 94 d9 02 	call	0x5b2	; 0x5b2 <twi_init>
	
	//store_init();
	
	//init bmp280
	if(!bmp280_init()){
     50a:	0e 94 26 01 	call	0x24c	; 0x24c <bmp280_init>
     50e:	89 2b       	or	r24, r25
     510:	89 f4       	brne	.+34     	; 0x534 <main+0x32>
		lcd_pos(0,0);
     512:	60 e0       	ldi	r22, 0x00	; 0
     514:	80 e0       	ldi	r24, 0x00	; 0
     516:	0e 94 78 01 	call	0x2f0	; 0x2f0 <lcd_pos>
		lcd_puts("ERROR!");
     51a:	8a e8       	ldi	r24, 0x8A	; 138
     51c:	90 e0       	ldi	r25, 0x00	; 0
     51e:	0e 94 8c 01 	call	0x318	; 0x318 <lcd_puts>
		lcd_pos(1,0);
     522:	60 e0       	ldi	r22, 0x00	; 0
     524:	81 e0       	ldi	r24, 0x01	; 1
     526:	0e 94 78 01 	call	0x2f0	; 0x2f0 <lcd_pos>
		lcd_puts("BMP280 wrong ID");
     52a:	81 e9       	ldi	r24, 0x91	; 145
     52c:	90 e0       	ldi	r25, 0x00	; 0
     52e:	0e 94 8c 01 	call	0x318	; 0x318 <lcd_puts>
     532:	ff cf       	rjmp	.-2      	; 0x532 <main+0x30>
	}
	//
	
	
	
	UCSRB |= (1 <<RXEN) | (1 << TXEN) | (1 << RXCIE);
     534:	8a b1       	in	r24, 0x0a	; 10
     536:	88 69       	ori	r24, 0x98	; 152
     538:	8a b9       	out	0x0a, r24	; 10
	UCSRC |= (1 << URSEL) | (1 << UCSZ0) | (1 << UCSZ1);
     53a:	80 b5       	in	r24, 0x20	; 32
     53c:	86 68       	ori	r24, 0x86	; 134
     53e:	80 bd       	out	0x20, r24	; 32
	UBRRL = BRC;
     540:	83 e3       	ldi	r24, 0x33	; 51
     542:	89 b9       	out	0x09, r24	; 9
	UBRRH = (BRC >> 8);
     544:	10 bc       	out	0x20, r1	; 32
	
	SET_BIT(PORTB, 0);
     546:	c0 9a       	sbi	0x18, 0	; 24
	
	sei(); //from code for RX int
     548:	78 94       	sei
	
	//
	avr_wait(500);
     54a:	84 ef       	ldi	r24, 0xF4	; 244
     54c:	91 e0       	ldi	r25, 0x01	; 1
     54e:	0e 94 d0 00 	call	0x1a0	; 0x1a0 <avr_wait>
    while (1) 
    {
		
		avr_wait(1000);
     552:	88 ee       	ldi	r24, 0xE8	; 232
     554:	93 e0       	ldi	r25, 0x03	; 3
     556:	0e 94 d0 00 	call	0x1a0	; 0x1a0 <avr_wait>
     55a:	fb cf       	rjmp	.-10     	; 0x552 <main+0x50>

0000055c <get_value>:
void store_init(){
	eeprom_write_byte((uint8_t*)1, BOTTOM);
	avr_wait(25);
}

unsigned int get_value(int n){
     55c:	0f 93       	push	r16
     55e:	1f 93       	push	r17
     560:	cf 93       	push	r28
     562:	df 93       	push	r29
     564:	8c 01       	movw	r16, r24
	uint16_t cur = eeprom_read_word((uint16_t*)1);
     566:	81 e0       	ldi	r24, 0x01	; 1
     568:	90 e0       	ldi	r25, 0x00	; 0
     56a:	0e 94 bd 0c 	call	0x197a	; 0x197a <eeprom_read_word>
     56e:	ec 01       	movw	r28, r24
	avr_wait(25);
     570:	89 e1       	ldi	r24, 0x19	; 25
     572:	90 e0       	ldi	r25, 0x00	; 0
     574:	0e 94 d0 00 	call	0x1a0	; 0x1a0 <avr_wait>
	
	int i = cur - (n*WIDTH);
     578:	00 0f       	add	r16, r16
     57a:	11 1f       	adc	r17, r17
     57c:	00 0f       	add	r16, r16
     57e:	11 1f       	adc	r17, r17
     580:	ce 01       	movw	r24, r28
     582:	80 1b       	sub	r24, r16
     584:	91 0b       	sbc	r25, r17
	if(i >= BOTTOM){
     586:	8a 30       	cpi	r24, 0x0A	; 10
     588:	91 05       	cpc	r25, r1
     58a:	1c f0       	brlt	.+6      	; 0x592 <get_value+0x36>
		return eeprom_read_word((uint16_t*)i);
     58c:	0e 94 bd 0c 	call	0x197a	; 0x197a <eeprom_read_word>
     590:	03 c0       	rjmp	.+6      	; 0x598 <get_value+0x3c>
	}
	else{
		i = TOP - (BOTTOM - i - WIDTH);
		return eeprom_read_word((uint16_t*)i);
     592:	40 96       	adiw	r24, 0x10	; 16
     594:	0e 94 bd 0c 	call	0x197a	; 0x197a <eeprom_read_word>
	}
}
     598:	df 91       	pop	r29
     59a:	cf 91       	pop	r28
     59c:	1f 91       	pop	r17
     59e:	0f 91       	pop	r16
     5a0:	08 95       	ret

000005a2 <check_bounds>:

int check_bounds(int n){
     5a2:	21 e0       	ldi	r18, 0x01	; 1
     5a4:	30 e0       	ldi	r19, 0x00	; 0
     5a6:	04 97       	sbiw	r24, 0x04	; 4
     5a8:	10 f0       	brcs	.+4      	; 0x5ae <check_bounds+0xc>
     5aa:	20 e0       	ldi	r18, 0x00	; 0
     5ac:	30 e0       	ldi	r19, 0x00	; 0
	int max = size - 1;
	if(n >= 0 && n <= max){
		return 1;
	}
	return 0;
}
     5ae:	c9 01       	movw	r24, r18
     5b0:	08 95       	ret

000005b2 <twi_init>:
#include "twi.h"
#include <avr/io.h>

void twi_init(){
	TWBR = 0x00;
     5b2:	10 b8       	out	0x00, r1	; 0
	TWBR= 0x0C;//double check this
     5b4:	8c e0       	ldi	r24, 0x0C	; 12
     5b6:	80 b9       	out	0x00, r24	; 0
     5b8:	08 95       	ret

000005ba <twi_start>:
}
//Send start condition
void twi_start(){
	TWCR = (1<<TWINT)|(1<<TWSTA)|(1<<TWEN);
     5ba:	84 ea       	ldi	r24, 0xA4	; 164
     5bc:	86 bf       	out	0x36, r24	; 54
	while(!(TWCR & (1<<TWINT)));
     5be:	06 b6       	in	r0, 0x36	; 54
     5c0:	07 fe       	sbrs	r0, 7
     5c2:	fd cf       	rjmp	.-6      	; 0x5be <twi_start+0x4>
	//while((TWSR & (0xF8)) != 0x08);
}
     5c4:	08 95       	ret

000005c6 <twi_write_addr_w>:
void twi_write_addr_w(unsigned char addr){
	TWDR= addr;
     5c6:	83 b9       	out	0x03, r24	; 3
	TWCR = (1<<TWINT)|(1<<TWEN);
     5c8:	84 e8       	ldi	r24, 0x84	; 132
     5ca:	86 bf       	out	0x36, r24	; 54
	while(!(TWCR & (1<<TWINT)));
     5cc:	06 b6       	in	r0, 0x36	; 54
     5ce:	07 fe       	sbrs	r0, 7
     5d0:	fd cf       	rjmp	.-6      	; 0x5cc <twi_write_addr_w+0x6>
	//while((TWSR & (0xF8)) != 0x18); //check status
}
     5d2:	08 95       	ret

000005d4 <twi_write_byte>:

void twi_write_byte(unsigned char data){
	TWDR = data;
     5d4:	83 b9       	out	0x03, r24	; 3
	TWCR = (1<<TWINT)|(1<<TWEN);
     5d6:	84 e8       	ldi	r24, 0x84	; 132
     5d8:	86 bf       	out	0x36, r24	; 54
	while(!(TWCR & (1<<TWINT)));
     5da:	06 b6       	in	r0, 0x36	; 54
     5dc:	07 fe       	sbrs	r0, 7
     5de:	fd cf       	rjmp	.-6      	; 0x5da <twi_write_byte+0x6>
	//while((TWSR & (0xF8)) != 0x28); //check status
}
     5e0:	08 95       	ret

000005e2 <twi_write_addr_r>:

void twi_write_addr_r(unsigned char addr){
	TWDR= addr;
     5e2:	83 b9       	out	0x03, r24	; 3
	TWCR = (1<<TWINT)|(1<<TWEN);
     5e4:	84 e8       	ldi	r24, 0x84	; 132
     5e6:	86 bf       	out	0x36, r24	; 54
	while(!(TWCR & (1<<TWINT)));
     5e8:	06 b6       	in	r0, 0x36	; 54
     5ea:	07 fe       	sbrs	r0, 7
     5ec:	fd cf       	rjmp	.-6      	; 0x5e8 <twi_write_addr_r+0x6>
	//while((TWSR & (0xF8)) != 0x40); //check status
}
     5ee:	08 95       	ret

000005f0 <twi_read_byte>:

unsigned char twi_read_byte(){
	unsigned char data;
	TWCR = (1<<TWINT)|(1<<TWEN)|(1<<TWEA);
     5f0:	84 ec       	ldi	r24, 0xC4	; 196
     5f2:	86 bf       	out	0x36, r24	; 54
	while(!(TWCR & (1<<TWINT)));
     5f4:	06 b6       	in	r0, 0x36	; 54
     5f6:	07 fe       	sbrs	r0, 7
     5f8:	fd cf       	rjmp	.-6      	; 0x5f4 <twi_read_byte+0x4>
	data = TWDR;
     5fa:	83 b1       	in	r24, 0x03	; 3
	//while((TWSR & (0xF8)) != 0x50); //check status
	return data;
	
}
     5fc:	08 95       	ret

000005fe <twi_read_last_byte>:

unsigned char twi_read_last_byte(){
	unsigned char data;
	
	TWCR = (1<<TWINT)|(1<<TWEN);//TWEA = 0  to send NACK
     5fe:	84 e8       	ldi	r24, 0x84	; 132
     600:	86 bf       	out	0x36, r24	; 54
	while(!(TWCR & (1<<TWINT)));
     602:	06 b6       	in	r0, 0x36	; 54
     604:	07 fe       	sbrs	r0, 7
     606:	fd cf       	rjmp	.-6      	; 0x602 <twi_read_last_byte+0x4>
	data = TWDR;
     608:	83 b1       	in	r24, 0x03	; 3
	//while((TWSR & (0xF8)) != 0x58); //check status
	return data;
}
     60a:	08 95       	ret

0000060c <twi_stop>:

void twi_stop(){
	TWCR = (1<<TWINT)|(1<<TWEN)|(1<<TWSTO);
     60c:	84 e9       	ldi	r24, 0x94	; 148
     60e:	86 bf       	out	0x36, r24	; 54
     610:	08 95       	ret

00000612 <twi_read16>:
}

unsigned short twi_read16(unsigned char reg, unsigned char addrw, unsigned char addrr){
     612:	1f 93       	push	r17
     614:	cf 93       	push	r28
     616:	df 93       	push	r29
     618:	d8 2f       	mov	r29, r24
     61a:	16 2f       	mov	r17, r22
     61c:	c4 2f       	mov	r28, r20
	unsigned short data;
	unsigned short temp;
	//Format [b2] [b1]
	twi_start();
     61e:	0e 94 dd 02 	call	0x5ba	; 0x5ba <twi_start>
	twi_write_addr_w(addrw);
     622:	81 2f       	mov	r24, r17
     624:	0e 94 e3 02 	call	0x5c6	; 0x5c6 <twi_write_addr_w>
	twi_write_byte(reg);
     628:	8d 2f       	mov	r24, r29
     62a:	0e 94 ea 02 	call	0x5d4	; 0x5d4 <twi_write_byte>
	//twi_stop(); //stop not needed
	twi_start();
     62e:	0e 94 dd 02 	call	0x5ba	; 0x5ba <twi_start>
	twi_write_addr_r(addrr);
     632:	8c 2f       	mov	r24, r28
     634:	0e 94 f1 02 	call	0x5e2	; 0x5e2 <twi_write_addr_r>
	data = twi_read_byte();
     638:	0e 94 f8 02 	call	0x5f0	; 0x5f0 <twi_read_byte>
     63c:	c8 2f       	mov	r28, r24
     63e:	d0 e0       	ldi	r29, 0x00	; 0
	temp = twi_read_last_byte();
     640:	0e 94 ff 02 	call	0x5fe	; 0x5fe <twi_read_last_byte>
	//while((TWSR & (0xF8)) != 0x58); //check status
	return data;
}

void twi_stop(){
	TWCR = (1<<TWINT)|(1<<TWEN)|(1<<TWSTO);
     644:	94 e9       	ldi	r25, 0x94	; 148
     646:	96 bf       	out	0x36, r25	; 54
	temp = twi_read_last_byte();
	twi_stop();
	temp <<= 8;
	data |= temp;
	return data;
}
     648:	9e 01       	movw	r18, r28
     64a:	38 2b       	or	r19, r24
     64c:	c9 01       	movw	r24, r18
     64e:	df 91       	pop	r29
     650:	cf 91       	pop	r28
     652:	1f 91       	pop	r17
     654:	08 95       	ret

00000656 <__divsf3>:
     656:	0e 94 3f 03 	call	0x67e	; 0x67e <__divsf3x>
     65a:	0c 94 f1 03 	jmp	0x7e2	; 0x7e2 <__fp_round>
     65e:	0e 94 ea 03 	call	0x7d4	; 0x7d4 <__fp_pscB>
     662:	58 f0       	brcs	.+22     	; 0x67a <__divsf3+0x24>
     664:	0e 94 e3 03 	call	0x7c6	; 0x7c6 <__fp_pscA>
     668:	40 f0       	brcs	.+16     	; 0x67a <__divsf3+0x24>
     66a:	29 f4       	brne	.+10     	; 0x676 <__divsf3+0x20>
     66c:	5f 3f       	cpi	r21, 0xFF	; 255
     66e:	29 f0       	breq	.+10     	; 0x67a <__divsf3+0x24>
     670:	0c 94 da 03 	jmp	0x7b4	; 0x7b4 <__fp_inf>
     674:	51 11       	cpse	r21, r1
     676:	0c 94 25 04 	jmp	0x84a	; 0x84a <__fp_szero>
     67a:	0c 94 e0 03 	jmp	0x7c0	; 0x7c0 <__fp_nan>

0000067e <__divsf3x>:
     67e:	0e 94 02 04 	call	0x804	; 0x804 <__fp_split3>
     682:	68 f3       	brcs	.-38     	; 0x65e <__divsf3+0x8>

00000684 <__divsf3_pse>:
     684:	99 23       	and	r25, r25
     686:	b1 f3       	breq	.-20     	; 0x674 <__divsf3+0x1e>
     688:	55 23       	and	r21, r21
     68a:	91 f3       	breq	.-28     	; 0x670 <__divsf3+0x1a>
     68c:	95 1b       	sub	r25, r21
     68e:	55 0b       	sbc	r21, r21
     690:	bb 27       	eor	r27, r27
     692:	aa 27       	eor	r26, r26
     694:	62 17       	cp	r22, r18
     696:	73 07       	cpc	r23, r19
     698:	84 07       	cpc	r24, r20
     69a:	38 f0       	brcs	.+14     	; 0x6aa <__divsf3_pse+0x26>
     69c:	9f 5f       	subi	r25, 0xFF	; 255
     69e:	5f 4f       	sbci	r21, 0xFF	; 255
     6a0:	22 0f       	add	r18, r18
     6a2:	33 1f       	adc	r19, r19
     6a4:	44 1f       	adc	r20, r20
     6a6:	aa 1f       	adc	r26, r26
     6a8:	a9 f3       	breq	.-22     	; 0x694 <__divsf3_pse+0x10>
     6aa:	35 d0       	rcall	.+106    	; 0x716 <__divsf3_pse+0x92>
     6ac:	0e 2e       	mov	r0, r30
     6ae:	3a f0       	brmi	.+14     	; 0x6be <__divsf3_pse+0x3a>
     6b0:	e0 e8       	ldi	r30, 0x80	; 128
     6b2:	32 d0       	rcall	.+100    	; 0x718 <__divsf3_pse+0x94>
     6b4:	91 50       	subi	r25, 0x01	; 1
     6b6:	50 40       	sbci	r21, 0x00	; 0
     6b8:	e6 95       	lsr	r30
     6ba:	00 1c       	adc	r0, r0
     6bc:	ca f7       	brpl	.-14     	; 0x6b0 <__divsf3_pse+0x2c>
     6be:	2b d0       	rcall	.+86     	; 0x716 <__divsf3_pse+0x92>
     6c0:	fe 2f       	mov	r31, r30
     6c2:	29 d0       	rcall	.+82     	; 0x716 <__divsf3_pse+0x92>
     6c4:	66 0f       	add	r22, r22
     6c6:	77 1f       	adc	r23, r23
     6c8:	88 1f       	adc	r24, r24
     6ca:	bb 1f       	adc	r27, r27
     6cc:	26 17       	cp	r18, r22
     6ce:	37 07       	cpc	r19, r23
     6d0:	48 07       	cpc	r20, r24
     6d2:	ab 07       	cpc	r26, r27
     6d4:	b0 e8       	ldi	r27, 0x80	; 128
     6d6:	09 f0       	breq	.+2      	; 0x6da <__divsf3_pse+0x56>
     6d8:	bb 0b       	sbc	r27, r27
     6da:	80 2d       	mov	r24, r0
     6dc:	bf 01       	movw	r22, r30
     6de:	ff 27       	eor	r31, r31
     6e0:	93 58       	subi	r25, 0x83	; 131
     6e2:	5f 4f       	sbci	r21, 0xFF	; 255
     6e4:	3a f0       	brmi	.+14     	; 0x6f4 <__divsf3_pse+0x70>
     6e6:	9e 3f       	cpi	r25, 0xFE	; 254
     6e8:	51 05       	cpc	r21, r1
     6ea:	78 f0       	brcs	.+30     	; 0x70a <__divsf3_pse+0x86>
     6ec:	0c 94 da 03 	jmp	0x7b4	; 0x7b4 <__fp_inf>
     6f0:	0c 94 25 04 	jmp	0x84a	; 0x84a <__fp_szero>
     6f4:	5f 3f       	cpi	r21, 0xFF	; 255
     6f6:	e4 f3       	brlt	.-8      	; 0x6f0 <__divsf3_pse+0x6c>
     6f8:	98 3e       	cpi	r25, 0xE8	; 232
     6fa:	d4 f3       	brlt	.-12     	; 0x6f0 <__divsf3_pse+0x6c>
     6fc:	86 95       	lsr	r24
     6fe:	77 95       	ror	r23
     700:	67 95       	ror	r22
     702:	b7 95       	ror	r27
     704:	f7 95       	ror	r31
     706:	9f 5f       	subi	r25, 0xFF	; 255
     708:	c9 f7       	brne	.-14     	; 0x6fc <__divsf3_pse+0x78>
     70a:	88 0f       	add	r24, r24
     70c:	91 1d       	adc	r25, r1
     70e:	96 95       	lsr	r25
     710:	87 95       	ror	r24
     712:	97 f9       	bld	r25, 7
     714:	08 95       	ret
     716:	e1 e0       	ldi	r30, 0x01	; 1
     718:	66 0f       	add	r22, r22
     71a:	77 1f       	adc	r23, r23
     71c:	88 1f       	adc	r24, r24
     71e:	bb 1f       	adc	r27, r27
     720:	62 17       	cp	r22, r18
     722:	73 07       	cpc	r23, r19
     724:	84 07       	cpc	r24, r20
     726:	ba 07       	cpc	r27, r26
     728:	20 f0       	brcs	.+8      	; 0x732 <__divsf3_pse+0xae>
     72a:	62 1b       	sub	r22, r18
     72c:	73 0b       	sbc	r23, r19
     72e:	84 0b       	sbc	r24, r20
     730:	ba 0b       	sbc	r27, r26
     732:	ee 1f       	adc	r30, r30
     734:	88 f7       	brcc	.-30     	; 0x718 <__divsf3_pse+0x94>
     736:	e0 95       	com	r30
     738:	08 95       	ret

0000073a <__floatunsisf>:
     73a:	e8 94       	clt
     73c:	09 c0       	rjmp	.+18     	; 0x750 <__floatsisf+0x12>

0000073e <__floatsisf>:
     73e:	97 fb       	bst	r25, 7
     740:	3e f4       	brtc	.+14     	; 0x750 <__floatsisf+0x12>
     742:	90 95       	com	r25
     744:	80 95       	com	r24
     746:	70 95       	com	r23
     748:	61 95       	neg	r22
     74a:	7f 4f       	sbci	r23, 0xFF	; 255
     74c:	8f 4f       	sbci	r24, 0xFF	; 255
     74e:	9f 4f       	sbci	r25, 0xFF	; 255
     750:	99 23       	and	r25, r25
     752:	a9 f0       	breq	.+42     	; 0x77e <__floatsisf+0x40>
     754:	f9 2f       	mov	r31, r25
     756:	96 e9       	ldi	r25, 0x96	; 150
     758:	bb 27       	eor	r27, r27
     75a:	93 95       	inc	r25
     75c:	f6 95       	lsr	r31
     75e:	87 95       	ror	r24
     760:	77 95       	ror	r23
     762:	67 95       	ror	r22
     764:	b7 95       	ror	r27
     766:	f1 11       	cpse	r31, r1
     768:	f8 cf       	rjmp	.-16     	; 0x75a <__floatsisf+0x1c>
     76a:	fa f4       	brpl	.+62     	; 0x7aa <__floatsisf+0x6c>
     76c:	bb 0f       	add	r27, r27
     76e:	11 f4       	brne	.+4      	; 0x774 <__floatsisf+0x36>
     770:	60 ff       	sbrs	r22, 0
     772:	1b c0       	rjmp	.+54     	; 0x7aa <__floatsisf+0x6c>
     774:	6f 5f       	subi	r22, 0xFF	; 255
     776:	7f 4f       	sbci	r23, 0xFF	; 255
     778:	8f 4f       	sbci	r24, 0xFF	; 255
     77a:	9f 4f       	sbci	r25, 0xFF	; 255
     77c:	16 c0       	rjmp	.+44     	; 0x7aa <__floatsisf+0x6c>
     77e:	88 23       	and	r24, r24
     780:	11 f0       	breq	.+4      	; 0x786 <__floatsisf+0x48>
     782:	96 e9       	ldi	r25, 0x96	; 150
     784:	11 c0       	rjmp	.+34     	; 0x7a8 <__floatsisf+0x6a>
     786:	77 23       	and	r23, r23
     788:	21 f0       	breq	.+8      	; 0x792 <__floatsisf+0x54>
     78a:	9e e8       	ldi	r25, 0x8E	; 142
     78c:	87 2f       	mov	r24, r23
     78e:	76 2f       	mov	r23, r22
     790:	05 c0       	rjmp	.+10     	; 0x79c <__floatsisf+0x5e>
     792:	66 23       	and	r22, r22
     794:	71 f0       	breq	.+28     	; 0x7b2 <__floatsisf+0x74>
     796:	96 e8       	ldi	r25, 0x86	; 134
     798:	86 2f       	mov	r24, r22
     79a:	70 e0       	ldi	r23, 0x00	; 0
     79c:	60 e0       	ldi	r22, 0x00	; 0
     79e:	2a f0       	brmi	.+10     	; 0x7aa <__floatsisf+0x6c>
     7a0:	9a 95       	dec	r25
     7a2:	66 0f       	add	r22, r22
     7a4:	77 1f       	adc	r23, r23
     7a6:	88 1f       	adc	r24, r24
     7a8:	da f7       	brpl	.-10     	; 0x7a0 <__floatsisf+0x62>
     7aa:	88 0f       	add	r24, r24
     7ac:	96 95       	lsr	r25
     7ae:	87 95       	ror	r24
     7b0:	97 f9       	bld	r25, 7
     7b2:	08 95       	ret

000007b4 <__fp_inf>:
     7b4:	97 f9       	bld	r25, 7
     7b6:	9f 67       	ori	r25, 0x7F	; 127
     7b8:	80 e8       	ldi	r24, 0x80	; 128
     7ba:	70 e0       	ldi	r23, 0x00	; 0
     7bc:	60 e0       	ldi	r22, 0x00	; 0
     7be:	08 95       	ret

000007c0 <__fp_nan>:
     7c0:	9f ef       	ldi	r25, 0xFF	; 255
     7c2:	80 ec       	ldi	r24, 0xC0	; 192
     7c4:	08 95       	ret

000007c6 <__fp_pscA>:
     7c6:	00 24       	eor	r0, r0
     7c8:	0a 94       	dec	r0
     7ca:	16 16       	cp	r1, r22
     7cc:	17 06       	cpc	r1, r23
     7ce:	18 06       	cpc	r1, r24
     7d0:	09 06       	cpc	r0, r25
     7d2:	08 95       	ret

000007d4 <__fp_pscB>:
     7d4:	00 24       	eor	r0, r0
     7d6:	0a 94       	dec	r0
     7d8:	12 16       	cp	r1, r18
     7da:	13 06       	cpc	r1, r19
     7dc:	14 06       	cpc	r1, r20
     7de:	05 06       	cpc	r0, r21
     7e0:	08 95       	ret

000007e2 <__fp_round>:
     7e2:	09 2e       	mov	r0, r25
     7e4:	03 94       	inc	r0
     7e6:	00 0c       	add	r0, r0
     7e8:	11 f4       	brne	.+4      	; 0x7ee <__fp_round+0xc>
     7ea:	88 23       	and	r24, r24
     7ec:	52 f0       	brmi	.+20     	; 0x802 <__DATA_REGION_LENGTH__+0x2>
     7ee:	bb 0f       	add	r27, r27
     7f0:	40 f4       	brcc	.+16     	; 0x802 <__DATA_REGION_LENGTH__+0x2>
     7f2:	bf 2b       	or	r27, r31
     7f4:	11 f4       	brne	.+4      	; 0x7fa <__fp_round+0x18>
     7f6:	60 ff       	sbrs	r22, 0
     7f8:	04 c0       	rjmp	.+8      	; 0x802 <__DATA_REGION_LENGTH__+0x2>
     7fa:	6f 5f       	subi	r22, 0xFF	; 255
     7fc:	7f 4f       	sbci	r23, 0xFF	; 255
     7fe:	8f 4f       	sbci	r24, 0xFF	; 255
     800:	9f 4f       	sbci	r25, 0xFF	; 255
     802:	08 95       	ret

00000804 <__fp_split3>:
     804:	57 fd       	sbrc	r21, 7
     806:	90 58       	subi	r25, 0x80	; 128
     808:	44 0f       	add	r20, r20
     80a:	55 1f       	adc	r21, r21
     80c:	59 f0       	breq	.+22     	; 0x824 <__fp_splitA+0x10>
     80e:	5f 3f       	cpi	r21, 0xFF	; 255
     810:	71 f0       	breq	.+28     	; 0x82e <__fp_splitA+0x1a>
     812:	47 95       	ror	r20

00000814 <__fp_splitA>:
     814:	88 0f       	add	r24, r24
     816:	97 fb       	bst	r25, 7
     818:	99 1f       	adc	r25, r25
     81a:	61 f0       	breq	.+24     	; 0x834 <__fp_splitA+0x20>
     81c:	9f 3f       	cpi	r25, 0xFF	; 255
     81e:	79 f0       	breq	.+30     	; 0x83e <__fp_splitA+0x2a>
     820:	87 95       	ror	r24
     822:	08 95       	ret
     824:	12 16       	cp	r1, r18
     826:	13 06       	cpc	r1, r19
     828:	14 06       	cpc	r1, r20
     82a:	55 1f       	adc	r21, r21
     82c:	f2 cf       	rjmp	.-28     	; 0x812 <__fp_split3+0xe>
     82e:	46 95       	lsr	r20
     830:	f1 df       	rcall	.-30     	; 0x814 <__fp_splitA>
     832:	08 c0       	rjmp	.+16     	; 0x844 <__fp_splitA+0x30>
     834:	16 16       	cp	r1, r22
     836:	17 06       	cpc	r1, r23
     838:	18 06       	cpc	r1, r24
     83a:	99 1f       	adc	r25, r25
     83c:	f1 cf       	rjmp	.-30     	; 0x820 <__fp_splitA+0xc>
     83e:	86 95       	lsr	r24
     840:	71 05       	cpc	r23, r1
     842:	61 05       	cpc	r22, r1
     844:	08 94       	sec
     846:	08 95       	ret

00000848 <__fp_zero>:
     848:	e8 94       	clt

0000084a <__fp_szero>:
     84a:	bb 27       	eor	r27, r27
     84c:	66 27       	eor	r22, r22
     84e:	77 27       	eor	r23, r23
     850:	cb 01       	movw	r24, r22
     852:	97 f9       	bld	r25, 7
     854:	08 95       	ret

00000856 <vfprintf>:
     856:	a0 e1       	ldi	r26, 0x10	; 16
     858:	b0 e0       	ldi	r27, 0x00	; 0
     85a:	e1 e3       	ldi	r30, 0x31	; 49
     85c:	f4 e0       	ldi	r31, 0x04	; 4
     85e:	0c 94 a8 07 	jmp	0xf50	; 0xf50 <__prologue_saves__>
     862:	7c 01       	movw	r14, r24
     864:	1b 01       	movw	r2, r22
     866:	6a 01       	movw	r12, r20
     868:	fc 01       	movw	r30, r24
     86a:	17 82       	std	Z+7, r1	; 0x07
     86c:	16 82       	std	Z+6, r1	; 0x06
     86e:	83 81       	ldd	r24, Z+3	; 0x03
     870:	81 ff       	sbrs	r24, 1
     872:	44 c3       	rjmp	.+1672   	; 0xefc <__stack+0x69d>
     874:	9e 01       	movw	r18, r28
     876:	2f 5f       	subi	r18, 0xFF	; 255
     878:	3f 4f       	sbci	r19, 0xFF	; 255
     87a:	39 01       	movw	r6, r18
     87c:	f7 01       	movw	r30, r14
     87e:	93 81       	ldd	r25, Z+3	; 0x03
     880:	f1 01       	movw	r30, r2
     882:	93 fd       	sbrc	r25, 3
     884:	85 91       	lpm	r24, Z+
     886:	93 ff       	sbrs	r25, 3
     888:	81 91       	ld	r24, Z+
     88a:	1f 01       	movw	r2, r30
     88c:	88 23       	and	r24, r24
     88e:	09 f4       	brne	.+2      	; 0x892 <__stack+0x33>
     890:	31 c3       	rjmp	.+1634   	; 0xef4 <__stack+0x695>
     892:	85 32       	cpi	r24, 0x25	; 37
     894:	39 f4       	brne	.+14     	; 0x8a4 <__stack+0x45>
     896:	93 fd       	sbrc	r25, 3
     898:	85 91       	lpm	r24, Z+
     89a:	93 ff       	sbrs	r25, 3
     89c:	81 91       	ld	r24, Z+
     89e:	1f 01       	movw	r2, r30
     8a0:	85 32       	cpi	r24, 0x25	; 37
     8a2:	39 f4       	brne	.+14     	; 0x8b2 <__stack+0x53>
     8a4:	b7 01       	movw	r22, r14
     8a6:	90 e0       	ldi	r25, 0x00	; 0
     8a8:	0e 94 cd 08 	call	0x119a	; 0x119a <fputc>
     8ac:	56 01       	movw	r10, r12
     8ae:	65 01       	movw	r12, r10
     8b0:	e5 cf       	rjmp	.-54     	; 0x87c <__stack+0x1d>
     8b2:	10 e0       	ldi	r17, 0x00	; 0
     8b4:	51 2c       	mov	r5, r1
     8b6:	91 2c       	mov	r9, r1
     8b8:	ff e1       	ldi	r31, 0x1F	; 31
     8ba:	f9 15       	cp	r31, r9
     8bc:	d8 f0       	brcs	.+54     	; 0x8f4 <__stack+0x95>
     8be:	8b 32       	cpi	r24, 0x2B	; 43
     8c0:	79 f0       	breq	.+30     	; 0x8e0 <__stack+0x81>
     8c2:	38 f4       	brcc	.+14     	; 0x8d2 <__stack+0x73>
     8c4:	80 32       	cpi	r24, 0x20	; 32
     8c6:	79 f0       	breq	.+30     	; 0x8e6 <__stack+0x87>
     8c8:	83 32       	cpi	r24, 0x23	; 35
     8ca:	a1 f4       	brne	.+40     	; 0x8f4 <__stack+0x95>
     8cc:	f9 2d       	mov	r31, r9
     8ce:	f0 61       	ori	r31, 0x10	; 16
     8d0:	2e c0       	rjmp	.+92     	; 0x92e <__stack+0xcf>
     8d2:	8d 32       	cpi	r24, 0x2D	; 45
     8d4:	61 f0       	breq	.+24     	; 0x8ee <__stack+0x8f>
     8d6:	80 33       	cpi	r24, 0x30	; 48
     8d8:	69 f4       	brne	.+26     	; 0x8f4 <__stack+0x95>
     8da:	29 2d       	mov	r18, r9
     8dc:	21 60       	ori	r18, 0x01	; 1
     8de:	2d c0       	rjmp	.+90     	; 0x93a <__stack+0xdb>
     8e0:	39 2d       	mov	r19, r9
     8e2:	32 60       	ori	r19, 0x02	; 2
     8e4:	93 2e       	mov	r9, r19
     8e6:	89 2d       	mov	r24, r9
     8e8:	84 60       	ori	r24, 0x04	; 4
     8ea:	98 2e       	mov	r9, r24
     8ec:	2a c0       	rjmp	.+84     	; 0x942 <__stack+0xe3>
     8ee:	e9 2d       	mov	r30, r9
     8f0:	e8 60       	ori	r30, 0x08	; 8
     8f2:	15 c0       	rjmp	.+42     	; 0x91e <__stack+0xbf>
     8f4:	97 fc       	sbrc	r9, 7
     8f6:	2d c0       	rjmp	.+90     	; 0x952 <__stack+0xf3>
     8f8:	20 ed       	ldi	r18, 0xD0	; 208
     8fa:	28 0f       	add	r18, r24
     8fc:	2a 30       	cpi	r18, 0x0A	; 10
     8fe:	88 f4       	brcc	.+34     	; 0x922 <__stack+0xc3>
     900:	96 fe       	sbrs	r9, 6
     902:	06 c0       	rjmp	.+12     	; 0x910 <__stack+0xb1>
     904:	3a e0       	ldi	r19, 0x0A	; 10
     906:	13 9f       	mul	r17, r19
     908:	20 0d       	add	r18, r0
     90a:	11 24       	eor	r1, r1
     90c:	12 2f       	mov	r17, r18
     90e:	19 c0       	rjmp	.+50     	; 0x942 <__stack+0xe3>
     910:	8a e0       	ldi	r24, 0x0A	; 10
     912:	58 9e       	mul	r5, r24
     914:	20 0d       	add	r18, r0
     916:	11 24       	eor	r1, r1
     918:	52 2e       	mov	r5, r18
     91a:	e9 2d       	mov	r30, r9
     91c:	e0 62       	ori	r30, 0x20	; 32
     91e:	9e 2e       	mov	r9, r30
     920:	10 c0       	rjmp	.+32     	; 0x942 <__stack+0xe3>
     922:	8e 32       	cpi	r24, 0x2E	; 46
     924:	31 f4       	brne	.+12     	; 0x932 <__stack+0xd3>
     926:	96 fc       	sbrc	r9, 6
     928:	e5 c2       	rjmp	.+1482   	; 0xef4 <__stack+0x695>
     92a:	f9 2d       	mov	r31, r9
     92c:	f0 64       	ori	r31, 0x40	; 64
     92e:	9f 2e       	mov	r9, r31
     930:	08 c0       	rjmp	.+16     	; 0x942 <__stack+0xe3>
     932:	8c 36       	cpi	r24, 0x6C	; 108
     934:	21 f4       	brne	.+8      	; 0x93e <__stack+0xdf>
     936:	29 2d       	mov	r18, r9
     938:	20 68       	ori	r18, 0x80	; 128
     93a:	92 2e       	mov	r9, r18
     93c:	02 c0       	rjmp	.+4      	; 0x942 <__stack+0xe3>
     93e:	88 36       	cpi	r24, 0x68	; 104
     940:	41 f4       	brne	.+16     	; 0x952 <__stack+0xf3>
     942:	f1 01       	movw	r30, r2
     944:	93 fd       	sbrc	r25, 3
     946:	85 91       	lpm	r24, Z+
     948:	93 ff       	sbrs	r25, 3
     94a:	81 91       	ld	r24, Z+
     94c:	1f 01       	movw	r2, r30
     94e:	81 11       	cpse	r24, r1
     950:	b3 cf       	rjmp	.-154    	; 0x8b8 <__stack+0x59>
     952:	9b eb       	ldi	r25, 0xBB	; 187
     954:	98 0f       	add	r25, r24
     956:	93 30       	cpi	r25, 0x03	; 3
     958:	20 f4       	brcc	.+8      	; 0x962 <__stack+0x103>
     95a:	99 2d       	mov	r25, r9
     95c:	90 61       	ori	r25, 0x10	; 16
     95e:	80 5e       	subi	r24, 0xE0	; 224
     960:	07 c0       	rjmp	.+14     	; 0x970 <__stack+0x111>
     962:	9b e9       	ldi	r25, 0x9B	; 155
     964:	98 0f       	add	r25, r24
     966:	93 30       	cpi	r25, 0x03	; 3
     968:	08 f0       	brcs	.+2      	; 0x96c <__stack+0x10d>
     96a:	66 c1       	rjmp	.+716    	; 0xc38 <__stack+0x3d9>
     96c:	99 2d       	mov	r25, r9
     96e:	9f 7e       	andi	r25, 0xEF	; 239
     970:	96 ff       	sbrs	r25, 6
     972:	16 e0       	ldi	r17, 0x06	; 6
     974:	9f 73       	andi	r25, 0x3F	; 63
     976:	99 2e       	mov	r9, r25
     978:	85 36       	cpi	r24, 0x65	; 101
     97a:	19 f4       	brne	.+6      	; 0x982 <__stack+0x123>
     97c:	90 64       	ori	r25, 0x40	; 64
     97e:	99 2e       	mov	r9, r25
     980:	08 c0       	rjmp	.+16     	; 0x992 <__stack+0x133>
     982:	86 36       	cpi	r24, 0x66	; 102
     984:	21 f4       	brne	.+8      	; 0x98e <__stack+0x12f>
     986:	39 2f       	mov	r19, r25
     988:	30 68       	ori	r19, 0x80	; 128
     98a:	93 2e       	mov	r9, r19
     98c:	02 c0       	rjmp	.+4      	; 0x992 <__stack+0x133>
     98e:	11 11       	cpse	r17, r1
     990:	11 50       	subi	r17, 0x01	; 1
     992:	97 fe       	sbrs	r9, 7
     994:	07 c0       	rjmp	.+14     	; 0x9a4 <__stack+0x145>
     996:	1c 33       	cpi	r17, 0x3C	; 60
     998:	50 f4       	brcc	.+20     	; 0x9ae <__stack+0x14f>
     99a:	44 24       	eor	r4, r4
     99c:	43 94       	inc	r4
     99e:	41 0e       	add	r4, r17
     9a0:	27 e0       	ldi	r18, 0x07	; 7
     9a2:	0b c0       	rjmp	.+22     	; 0x9ba <__stack+0x15b>
     9a4:	18 30       	cpi	r17, 0x08	; 8
     9a6:	38 f0       	brcs	.+14     	; 0x9b6 <__stack+0x157>
     9a8:	27 e0       	ldi	r18, 0x07	; 7
     9aa:	17 e0       	ldi	r17, 0x07	; 7
     9ac:	05 c0       	rjmp	.+10     	; 0x9b8 <__stack+0x159>
     9ae:	27 e0       	ldi	r18, 0x07	; 7
     9b0:	9c e3       	ldi	r25, 0x3C	; 60
     9b2:	49 2e       	mov	r4, r25
     9b4:	02 c0       	rjmp	.+4      	; 0x9ba <__stack+0x15b>
     9b6:	21 2f       	mov	r18, r17
     9b8:	41 2c       	mov	r4, r1
     9ba:	56 01       	movw	r10, r12
     9bc:	84 e0       	ldi	r24, 0x04	; 4
     9be:	a8 0e       	add	r10, r24
     9c0:	b1 1c       	adc	r11, r1
     9c2:	f6 01       	movw	r30, r12
     9c4:	60 81       	ld	r22, Z
     9c6:	71 81       	ldd	r23, Z+1	; 0x01
     9c8:	82 81       	ldd	r24, Z+2	; 0x02
     9ca:	93 81       	ldd	r25, Z+3	; 0x03
     9cc:	04 2d       	mov	r16, r4
     9ce:	a3 01       	movw	r20, r6
     9d0:	0e 94 df 07 	call	0xfbe	; 0xfbe <__ftoa_engine>
     9d4:	6c 01       	movw	r12, r24
     9d6:	f9 81       	ldd	r31, Y+1	; 0x01
     9d8:	fc 87       	std	Y+12, r31	; 0x0c
     9da:	f0 ff       	sbrs	r31, 0
     9dc:	02 c0       	rjmp	.+4      	; 0x9e2 <__stack+0x183>
     9de:	f3 ff       	sbrs	r31, 3
     9e0:	06 c0       	rjmp	.+12     	; 0x9ee <__stack+0x18f>
     9e2:	91 fc       	sbrc	r9, 1
     9e4:	06 c0       	rjmp	.+12     	; 0x9f2 <__stack+0x193>
     9e6:	92 fe       	sbrs	r9, 2
     9e8:	06 c0       	rjmp	.+12     	; 0x9f6 <__stack+0x197>
     9ea:	00 e2       	ldi	r16, 0x20	; 32
     9ec:	05 c0       	rjmp	.+10     	; 0x9f8 <__stack+0x199>
     9ee:	0d e2       	ldi	r16, 0x2D	; 45
     9f0:	03 c0       	rjmp	.+6      	; 0x9f8 <__stack+0x199>
     9f2:	0b e2       	ldi	r16, 0x2B	; 43
     9f4:	01 c0       	rjmp	.+2      	; 0x9f8 <__stack+0x199>
     9f6:	00 e0       	ldi	r16, 0x00	; 0
     9f8:	8c 85       	ldd	r24, Y+12	; 0x0c
     9fa:	8c 70       	andi	r24, 0x0C	; 12
     9fc:	19 f0       	breq	.+6      	; 0xa04 <__stack+0x1a5>
     9fe:	01 11       	cpse	r16, r1
     a00:	5a c2       	rjmp	.+1204   	; 0xeb6 <__stack+0x657>
     a02:	9b c2       	rjmp	.+1334   	; 0xf3a <__stack+0x6db>
     a04:	97 fe       	sbrs	r9, 7
     a06:	10 c0       	rjmp	.+32     	; 0xa28 <__stack+0x1c9>
     a08:	4c 0c       	add	r4, r12
     a0a:	fc 85       	ldd	r31, Y+12	; 0x0c
     a0c:	f4 ff       	sbrs	r31, 4
     a0e:	04 c0       	rjmp	.+8      	; 0xa18 <__stack+0x1b9>
     a10:	8a 81       	ldd	r24, Y+2	; 0x02
     a12:	81 33       	cpi	r24, 0x31	; 49
     a14:	09 f4       	brne	.+2      	; 0xa18 <__stack+0x1b9>
     a16:	4a 94       	dec	r4
     a18:	14 14       	cp	r1, r4
     a1a:	74 f5       	brge	.+92     	; 0xa78 <__stack+0x219>
     a1c:	28 e0       	ldi	r18, 0x08	; 8
     a1e:	24 15       	cp	r18, r4
     a20:	78 f5       	brcc	.+94     	; 0xa80 <__stack+0x221>
     a22:	88 e0       	ldi	r24, 0x08	; 8
     a24:	48 2e       	mov	r4, r24
     a26:	2c c0       	rjmp	.+88     	; 0xa80 <__stack+0x221>
     a28:	96 fc       	sbrc	r9, 6
     a2a:	2a c0       	rjmp	.+84     	; 0xa80 <__stack+0x221>
     a2c:	81 2f       	mov	r24, r17
     a2e:	90 e0       	ldi	r25, 0x00	; 0
     a30:	8c 15       	cp	r24, r12
     a32:	9d 05       	cpc	r25, r13
     a34:	9c f0       	brlt	.+38     	; 0xa5c <__stack+0x1fd>
     a36:	3c ef       	ldi	r19, 0xFC	; 252
     a38:	c3 16       	cp	r12, r19
     a3a:	3f ef       	ldi	r19, 0xFF	; 255
     a3c:	d3 06       	cpc	r13, r19
     a3e:	74 f0       	brlt	.+28     	; 0xa5c <__stack+0x1fd>
     a40:	89 2d       	mov	r24, r9
     a42:	80 68       	ori	r24, 0x80	; 128
     a44:	98 2e       	mov	r9, r24
     a46:	0a c0       	rjmp	.+20     	; 0xa5c <__stack+0x1fd>
     a48:	e2 e0       	ldi	r30, 0x02	; 2
     a4a:	f0 e0       	ldi	r31, 0x00	; 0
     a4c:	ec 0f       	add	r30, r28
     a4e:	fd 1f       	adc	r31, r29
     a50:	e1 0f       	add	r30, r17
     a52:	f1 1d       	adc	r31, r1
     a54:	80 81       	ld	r24, Z
     a56:	80 33       	cpi	r24, 0x30	; 48
     a58:	19 f4       	brne	.+6      	; 0xa60 <__stack+0x201>
     a5a:	11 50       	subi	r17, 0x01	; 1
     a5c:	11 11       	cpse	r17, r1
     a5e:	f4 cf       	rjmp	.-24     	; 0xa48 <__stack+0x1e9>
     a60:	97 fe       	sbrs	r9, 7
     a62:	0e c0       	rjmp	.+28     	; 0xa80 <__stack+0x221>
     a64:	44 24       	eor	r4, r4
     a66:	43 94       	inc	r4
     a68:	41 0e       	add	r4, r17
     a6a:	81 2f       	mov	r24, r17
     a6c:	90 e0       	ldi	r25, 0x00	; 0
     a6e:	c8 16       	cp	r12, r24
     a70:	d9 06       	cpc	r13, r25
     a72:	2c f4       	brge	.+10     	; 0xa7e <__stack+0x21f>
     a74:	1c 19       	sub	r17, r12
     a76:	04 c0       	rjmp	.+8      	; 0xa80 <__stack+0x221>
     a78:	44 24       	eor	r4, r4
     a7a:	43 94       	inc	r4
     a7c:	01 c0       	rjmp	.+2      	; 0xa80 <__stack+0x221>
     a7e:	10 e0       	ldi	r17, 0x00	; 0
     a80:	97 fe       	sbrs	r9, 7
     a82:	06 c0       	rjmp	.+12     	; 0xa90 <__stack+0x231>
     a84:	1c 14       	cp	r1, r12
     a86:	1d 04       	cpc	r1, r13
     a88:	34 f4       	brge	.+12     	; 0xa96 <__stack+0x237>
     a8a:	c6 01       	movw	r24, r12
     a8c:	01 96       	adiw	r24, 0x01	; 1
     a8e:	05 c0       	rjmp	.+10     	; 0xa9a <__stack+0x23b>
     a90:	85 e0       	ldi	r24, 0x05	; 5
     a92:	90 e0       	ldi	r25, 0x00	; 0
     a94:	02 c0       	rjmp	.+4      	; 0xa9a <__stack+0x23b>
     a96:	81 e0       	ldi	r24, 0x01	; 1
     a98:	90 e0       	ldi	r25, 0x00	; 0
     a9a:	01 11       	cpse	r16, r1
     a9c:	01 96       	adiw	r24, 0x01	; 1
     a9e:	11 23       	and	r17, r17
     aa0:	31 f0       	breq	.+12     	; 0xaae <__stack+0x24f>
     aa2:	21 2f       	mov	r18, r17
     aa4:	30 e0       	ldi	r19, 0x00	; 0
     aa6:	2f 5f       	subi	r18, 0xFF	; 255
     aa8:	3f 4f       	sbci	r19, 0xFF	; 255
     aaa:	82 0f       	add	r24, r18
     aac:	93 1f       	adc	r25, r19
     aae:	25 2d       	mov	r18, r5
     ab0:	30 e0       	ldi	r19, 0x00	; 0
     ab2:	82 17       	cp	r24, r18
     ab4:	93 07       	cpc	r25, r19
     ab6:	14 f4       	brge	.+4      	; 0xabc <__stack+0x25d>
     ab8:	58 1a       	sub	r5, r24
     aba:	01 c0       	rjmp	.+2      	; 0xabe <__stack+0x25f>
     abc:	51 2c       	mov	r5, r1
     abe:	89 2d       	mov	r24, r9
     ac0:	89 70       	andi	r24, 0x09	; 9
     ac2:	49 f4       	brne	.+18     	; 0xad6 <__stack+0x277>
     ac4:	55 20       	and	r5, r5
     ac6:	39 f0       	breq	.+14     	; 0xad6 <__stack+0x277>
     ac8:	b7 01       	movw	r22, r14
     aca:	80 e2       	ldi	r24, 0x20	; 32
     acc:	90 e0       	ldi	r25, 0x00	; 0
     ace:	0e 94 cd 08 	call	0x119a	; 0x119a <fputc>
     ad2:	5a 94       	dec	r5
     ad4:	f7 cf       	rjmp	.-18     	; 0xac4 <__stack+0x265>
     ad6:	00 23       	and	r16, r16
     ad8:	29 f0       	breq	.+10     	; 0xae4 <__stack+0x285>
     ada:	b7 01       	movw	r22, r14
     adc:	80 2f       	mov	r24, r16
     ade:	90 e0       	ldi	r25, 0x00	; 0
     ae0:	0e 94 cd 08 	call	0x119a	; 0x119a <fputc>
     ae4:	93 fc       	sbrc	r9, 3
     ae6:	09 c0       	rjmp	.+18     	; 0xafa <__stack+0x29b>
     ae8:	55 20       	and	r5, r5
     aea:	39 f0       	breq	.+14     	; 0xafa <__stack+0x29b>
     aec:	b7 01       	movw	r22, r14
     aee:	80 e3       	ldi	r24, 0x30	; 48
     af0:	90 e0       	ldi	r25, 0x00	; 0
     af2:	0e 94 cd 08 	call	0x119a	; 0x119a <fputc>
     af6:	5a 94       	dec	r5
     af8:	f7 cf       	rjmp	.-18     	; 0xae8 <__stack+0x289>
     afa:	97 fe       	sbrs	r9, 7
     afc:	4c c0       	rjmp	.+152    	; 0xb96 <__stack+0x337>
     afe:	46 01       	movw	r8, r12
     b00:	d7 fe       	sbrs	r13, 7
     b02:	02 c0       	rjmp	.+4      	; 0xb08 <__stack+0x2a9>
     b04:	81 2c       	mov	r8, r1
     b06:	91 2c       	mov	r9, r1
     b08:	c6 01       	movw	r24, r12
     b0a:	88 19       	sub	r24, r8
     b0c:	99 09       	sbc	r25, r9
     b0e:	f3 01       	movw	r30, r6
     b10:	e8 0f       	add	r30, r24
     b12:	f9 1f       	adc	r31, r25
     b14:	fe 87       	std	Y+14, r31	; 0x0e
     b16:	ed 87       	std	Y+13, r30	; 0x0d
     b18:	96 01       	movw	r18, r12
     b1a:	24 19       	sub	r18, r4
     b1c:	31 09       	sbc	r19, r1
     b1e:	38 8b       	std	Y+16, r19	; 0x10
     b20:	2f 87       	std	Y+15, r18	; 0x0f
     b22:	01 2f       	mov	r16, r17
     b24:	10 e0       	ldi	r17, 0x00	; 0
     b26:	11 95       	neg	r17
     b28:	01 95       	neg	r16
     b2a:	11 09       	sbc	r17, r1
     b2c:	3f ef       	ldi	r19, 0xFF	; 255
     b2e:	83 16       	cp	r8, r19
     b30:	93 06       	cpc	r9, r19
     b32:	29 f4       	brne	.+10     	; 0xb3e <__stack+0x2df>
     b34:	b7 01       	movw	r22, r14
     b36:	8e e2       	ldi	r24, 0x2E	; 46
     b38:	90 e0       	ldi	r25, 0x00	; 0
     b3a:	0e 94 cd 08 	call	0x119a	; 0x119a <fputc>
     b3e:	c8 14       	cp	r12, r8
     b40:	d9 04       	cpc	r13, r9
     b42:	4c f0       	brlt	.+18     	; 0xb56 <__stack+0x2f7>
     b44:	8f 85       	ldd	r24, Y+15	; 0x0f
     b46:	98 89       	ldd	r25, Y+16	; 0x10
     b48:	88 15       	cp	r24, r8
     b4a:	99 05       	cpc	r25, r9
     b4c:	24 f4       	brge	.+8      	; 0xb56 <__stack+0x2f7>
     b4e:	ed 85       	ldd	r30, Y+13	; 0x0d
     b50:	fe 85       	ldd	r31, Y+14	; 0x0e
     b52:	81 81       	ldd	r24, Z+1	; 0x01
     b54:	01 c0       	rjmp	.+2      	; 0xb58 <__stack+0x2f9>
     b56:	80 e3       	ldi	r24, 0x30	; 48
     b58:	f1 e0       	ldi	r31, 0x01	; 1
     b5a:	8f 1a       	sub	r8, r31
     b5c:	91 08       	sbc	r9, r1
     b5e:	2d 85       	ldd	r18, Y+13	; 0x0d
     b60:	3e 85       	ldd	r19, Y+14	; 0x0e
     b62:	2f 5f       	subi	r18, 0xFF	; 255
     b64:	3f 4f       	sbci	r19, 0xFF	; 255
     b66:	3e 87       	std	Y+14, r19	; 0x0e
     b68:	2d 87       	std	Y+13, r18	; 0x0d
     b6a:	80 16       	cp	r8, r16
     b6c:	91 06       	cpc	r9, r17
     b6e:	2c f0       	brlt	.+10     	; 0xb7a <__stack+0x31b>
     b70:	b7 01       	movw	r22, r14
     b72:	90 e0       	ldi	r25, 0x00	; 0
     b74:	0e 94 cd 08 	call	0x119a	; 0x119a <fputc>
     b78:	d9 cf       	rjmp	.-78     	; 0xb2c <__stack+0x2cd>
     b7a:	c8 14       	cp	r12, r8
     b7c:	d9 04       	cpc	r13, r9
     b7e:	41 f4       	brne	.+16     	; 0xb90 <__stack+0x331>
     b80:	9a 81       	ldd	r25, Y+2	; 0x02
     b82:	96 33       	cpi	r25, 0x36	; 54
     b84:	20 f4       	brcc	.+8      	; 0xb8e <__stack+0x32f>
     b86:	95 33       	cpi	r25, 0x35	; 53
     b88:	19 f4       	brne	.+6      	; 0xb90 <__stack+0x331>
     b8a:	3c 85       	ldd	r19, Y+12	; 0x0c
     b8c:	34 ff       	sbrs	r19, 4
     b8e:	81 e3       	ldi	r24, 0x31	; 49
     b90:	b7 01       	movw	r22, r14
     b92:	90 e0       	ldi	r25, 0x00	; 0
     b94:	4e c0       	rjmp	.+156    	; 0xc32 <__stack+0x3d3>
     b96:	8a 81       	ldd	r24, Y+2	; 0x02
     b98:	81 33       	cpi	r24, 0x31	; 49
     b9a:	19 f0       	breq	.+6      	; 0xba2 <__stack+0x343>
     b9c:	9c 85       	ldd	r25, Y+12	; 0x0c
     b9e:	9f 7e       	andi	r25, 0xEF	; 239
     ba0:	9c 87       	std	Y+12, r25	; 0x0c
     ba2:	b7 01       	movw	r22, r14
     ba4:	90 e0       	ldi	r25, 0x00	; 0
     ba6:	0e 94 cd 08 	call	0x119a	; 0x119a <fputc>
     baa:	11 11       	cpse	r17, r1
     bac:	05 c0       	rjmp	.+10     	; 0xbb8 <__stack+0x359>
     bae:	94 fc       	sbrc	r9, 4
     bb0:	18 c0       	rjmp	.+48     	; 0xbe2 <__stack+0x383>
     bb2:	85 e6       	ldi	r24, 0x65	; 101
     bb4:	90 e0       	ldi	r25, 0x00	; 0
     bb6:	17 c0       	rjmp	.+46     	; 0xbe6 <__stack+0x387>
     bb8:	b7 01       	movw	r22, r14
     bba:	8e e2       	ldi	r24, 0x2E	; 46
     bbc:	90 e0       	ldi	r25, 0x00	; 0
     bbe:	0e 94 cd 08 	call	0x119a	; 0x119a <fputc>
     bc2:	1e 5f       	subi	r17, 0xFE	; 254
     bc4:	82 e0       	ldi	r24, 0x02	; 2
     bc6:	01 e0       	ldi	r16, 0x01	; 1
     bc8:	08 0f       	add	r16, r24
     bca:	f3 01       	movw	r30, r6
     bcc:	e8 0f       	add	r30, r24
     bce:	f1 1d       	adc	r31, r1
     bd0:	80 81       	ld	r24, Z
     bd2:	b7 01       	movw	r22, r14
     bd4:	90 e0       	ldi	r25, 0x00	; 0
     bd6:	0e 94 cd 08 	call	0x119a	; 0x119a <fputc>
     bda:	80 2f       	mov	r24, r16
     bdc:	01 13       	cpse	r16, r17
     bde:	f3 cf       	rjmp	.-26     	; 0xbc6 <__stack+0x367>
     be0:	e6 cf       	rjmp	.-52     	; 0xbae <__stack+0x34f>
     be2:	85 e4       	ldi	r24, 0x45	; 69
     be4:	90 e0       	ldi	r25, 0x00	; 0
     be6:	b7 01       	movw	r22, r14
     be8:	0e 94 cd 08 	call	0x119a	; 0x119a <fputc>
     bec:	d7 fc       	sbrc	r13, 7
     bee:	06 c0       	rjmp	.+12     	; 0xbfc <__stack+0x39d>
     bf0:	c1 14       	cp	r12, r1
     bf2:	d1 04       	cpc	r13, r1
     bf4:	41 f4       	brne	.+16     	; 0xc06 <__stack+0x3a7>
     bf6:	ec 85       	ldd	r30, Y+12	; 0x0c
     bf8:	e4 ff       	sbrs	r30, 4
     bfa:	05 c0       	rjmp	.+10     	; 0xc06 <__stack+0x3a7>
     bfc:	d1 94       	neg	r13
     bfe:	c1 94       	neg	r12
     c00:	d1 08       	sbc	r13, r1
     c02:	8d e2       	ldi	r24, 0x2D	; 45
     c04:	01 c0       	rjmp	.+2      	; 0xc08 <__stack+0x3a9>
     c06:	8b e2       	ldi	r24, 0x2B	; 43
     c08:	b7 01       	movw	r22, r14
     c0a:	90 e0       	ldi	r25, 0x00	; 0
     c0c:	0e 94 cd 08 	call	0x119a	; 0x119a <fputc>
     c10:	80 e3       	ldi	r24, 0x30	; 48
     c12:	2a e0       	ldi	r18, 0x0A	; 10
     c14:	c2 16       	cp	r12, r18
     c16:	d1 04       	cpc	r13, r1
     c18:	2c f0       	brlt	.+10     	; 0xc24 <__stack+0x3c5>
     c1a:	8f 5f       	subi	r24, 0xFF	; 255
     c1c:	fa e0       	ldi	r31, 0x0A	; 10
     c1e:	cf 1a       	sub	r12, r31
     c20:	d1 08       	sbc	r13, r1
     c22:	f7 cf       	rjmp	.-18     	; 0xc12 <__stack+0x3b3>
     c24:	b7 01       	movw	r22, r14
     c26:	90 e0       	ldi	r25, 0x00	; 0
     c28:	0e 94 cd 08 	call	0x119a	; 0x119a <fputc>
     c2c:	b7 01       	movw	r22, r14
     c2e:	c6 01       	movw	r24, r12
     c30:	c0 96       	adiw	r24, 0x30	; 48
     c32:	0e 94 cd 08 	call	0x119a	; 0x119a <fputc>
     c36:	54 c1       	rjmp	.+680    	; 0xee0 <__stack+0x681>
     c38:	83 36       	cpi	r24, 0x63	; 99
     c3a:	31 f0       	breq	.+12     	; 0xc48 <__stack+0x3e9>
     c3c:	83 37       	cpi	r24, 0x73	; 115
     c3e:	79 f0       	breq	.+30     	; 0xc5e <__stack+0x3ff>
     c40:	83 35       	cpi	r24, 0x53	; 83
     c42:	09 f0       	breq	.+2      	; 0xc46 <__stack+0x3e7>
     c44:	56 c0       	rjmp	.+172    	; 0xcf2 <__stack+0x493>
     c46:	20 c0       	rjmp	.+64     	; 0xc88 <__stack+0x429>
     c48:	56 01       	movw	r10, r12
     c4a:	32 e0       	ldi	r19, 0x02	; 2
     c4c:	a3 0e       	add	r10, r19
     c4e:	b1 1c       	adc	r11, r1
     c50:	f6 01       	movw	r30, r12
     c52:	80 81       	ld	r24, Z
     c54:	89 83       	std	Y+1, r24	; 0x01
     c56:	01 e0       	ldi	r16, 0x01	; 1
     c58:	10 e0       	ldi	r17, 0x00	; 0
     c5a:	63 01       	movw	r12, r6
     c5c:	12 c0       	rjmp	.+36     	; 0xc82 <__stack+0x423>
     c5e:	56 01       	movw	r10, r12
     c60:	f2 e0       	ldi	r31, 0x02	; 2
     c62:	af 0e       	add	r10, r31
     c64:	b1 1c       	adc	r11, r1
     c66:	f6 01       	movw	r30, r12
     c68:	c0 80       	ld	r12, Z
     c6a:	d1 80       	ldd	r13, Z+1	; 0x01
     c6c:	96 fe       	sbrs	r9, 6
     c6e:	03 c0       	rjmp	.+6      	; 0xc76 <__stack+0x417>
     c70:	61 2f       	mov	r22, r17
     c72:	70 e0       	ldi	r23, 0x00	; 0
     c74:	02 c0       	rjmp	.+4      	; 0xc7a <__stack+0x41b>
     c76:	6f ef       	ldi	r22, 0xFF	; 255
     c78:	7f ef       	ldi	r23, 0xFF	; 255
     c7a:	c6 01       	movw	r24, r12
     c7c:	0e 94 c2 08 	call	0x1184	; 0x1184 <strnlen>
     c80:	8c 01       	movw	r16, r24
     c82:	f9 2d       	mov	r31, r9
     c84:	ff 77       	andi	r31, 0x7F	; 127
     c86:	14 c0       	rjmp	.+40     	; 0xcb0 <__stack+0x451>
     c88:	56 01       	movw	r10, r12
     c8a:	22 e0       	ldi	r18, 0x02	; 2
     c8c:	a2 0e       	add	r10, r18
     c8e:	b1 1c       	adc	r11, r1
     c90:	f6 01       	movw	r30, r12
     c92:	c0 80       	ld	r12, Z
     c94:	d1 80       	ldd	r13, Z+1	; 0x01
     c96:	96 fe       	sbrs	r9, 6
     c98:	03 c0       	rjmp	.+6      	; 0xca0 <__stack+0x441>
     c9a:	61 2f       	mov	r22, r17
     c9c:	70 e0       	ldi	r23, 0x00	; 0
     c9e:	02 c0       	rjmp	.+4      	; 0xca4 <__stack+0x445>
     ca0:	6f ef       	ldi	r22, 0xFF	; 255
     ca2:	7f ef       	ldi	r23, 0xFF	; 255
     ca4:	c6 01       	movw	r24, r12
     ca6:	0e 94 b7 08 	call	0x116e	; 0x116e <strnlen_P>
     caa:	8c 01       	movw	r16, r24
     cac:	f9 2d       	mov	r31, r9
     cae:	f0 68       	ori	r31, 0x80	; 128
     cb0:	9f 2e       	mov	r9, r31
     cb2:	f3 fd       	sbrc	r31, 3
     cb4:	1a c0       	rjmp	.+52     	; 0xcea <__stack+0x48b>
     cb6:	85 2d       	mov	r24, r5
     cb8:	90 e0       	ldi	r25, 0x00	; 0
     cba:	08 17       	cp	r16, r24
     cbc:	19 07       	cpc	r17, r25
     cbe:	a8 f4       	brcc	.+42     	; 0xcea <__stack+0x48b>
     cc0:	b7 01       	movw	r22, r14
     cc2:	80 e2       	ldi	r24, 0x20	; 32
     cc4:	90 e0       	ldi	r25, 0x00	; 0
     cc6:	0e 94 cd 08 	call	0x119a	; 0x119a <fputc>
     cca:	5a 94       	dec	r5
     ccc:	f4 cf       	rjmp	.-24     	; 0xcb6 <__stack+0x457>
     cce:	f6 01       	movw	r30, r12
     cd0:	97 fc       	sbrc	r9, 7
     cd2:	85 91       	lpm	r24, Z+
     cd4:	97 fe       	sbrs	r9, 7
     cd6:	81 91       	ld	r24, Z+
     cd8:	6f 01       	movw	r12, r30
     cda:	b7 01       	movw	r22, r14
     cdc:	90 e0       	ldi	r25, 0x00	; 0
     cde:	0e 94 cd 08 	call	0x119a	; 0x119a <fputc>
     ce2:	51 10       	cpse	r5, r1
     ce4:	5a 94       	dec	r5
     ce6:	01 50       	subi	r16, 0x01	; 1
     ce8:	11 09       	sbc	r17, r1
     cea:	01 15       	cp	r16, r1
     cec:	11 05       	cpc	r17, r1
     cee:	79 f7       	brne	.-34     	; 0xcce <__stack+0x46f>
     cf0:	f7 c0       	rjmp	.+494    	; 0xee0 <__stack+0x681>
     cf2:	84 36       	cpi	r24, 0x64	; 100
     cf4:	11 f0       	breq	.+4      	; 0xcfa <__stack+0x49b>
     cf6:	89 36       	cpi	r24, 0x69	; 105
     cf8:	61 f5       	brne	.+88     	; 0xd52 <__stack+0x4f3>
     cfa:	56 01       	movw	r10, r12
     cfc:	97 fe       	sbrs	r9, 7
     cfe:	09 c0       	rjmp	.+18     	; 0xd12 <__stack+0x4b3>
     d00:	24 e0       	ldi	r18, 0x04	; 4
     d02:	a2 0e       	add	r10, r18
     d04:	b1 1c       	adc	r11, r1
     d06:	f6 01       	movw	r30, r12
     d08:	60 81       	ld	r22, Z
     d0a:	71 81       	ldd	r23, Z+1	; 0x01
     d0c:	82 81       	ldd	r24, Z+2	; 0x02
     d0e:	93 81       	ldd	r25, Z+3	; 0x03
     d10:	0a c0       	rjmp	.+20     	; 0xd26 <__stack+0x4c7>
     d12:	f2 e0       	ldi	r31, 0x02	; 2
     d14:	af 0e       	add	r10, r31
     d16:	b1 1c       	adc	r11, r1
     d18:	f6 01       	movw	r30, r12
     d1a:	60 81       	ld	r22, Z
     d1c:	71 81       	ldd	r23, Z+1	; 0x01
     d1e:	07 2e       	mov	r0, r23
     d20:	00 0c       	add	r0, r0
     d22:	88 0b       	sbc	r24, r24
     d24:	99 0b       	sbc	r25, r25
     d26:	f9 2d       	mov	r31, r9
     d28:	ff 76       	andi	r31, 0x6F	; 111
     d2a:	9f 2e       	mov	r9, r31
     d2c:	97 ff       	sbrs	r25, 7
     d2e:	09 c0       	rjmp	.+18     	; 0xd42 <__stack+0x4e3>
     d30:	90 95       	com	r25
     d32:	80 95       	com	r24
     d34:	70 95       	com	r23
     d36:	61 95       	neg	r22
     d38:	7f 4f       	sbci	r23, 0xFF	; 255
     d3a:	8f 4f       	sbci	r24, 0xFF	; 255
     d3c:	9f 4f       	sbci	r25, 0xFF	; 255
     d3e:	f0 68       	ori	r31, 0x80	; 128
     d40:	9f 2e       	mov	r9, r31
     d42:	2a e0       	ldi	r18, 0x0A	; 10
     d44:	30 e0       	ldi	r19, 0x00	; 0
     d46:	a3 01       	movw	r20, r6
     d48:	0e 94 44 09 	call	0x1288	; 0x1288 <__ultoa_invert>
     d4c:	c8 2e       	mov	r12, r24
     d4e:	c6 18       	sub	r12, r6
     d50:	3f c0       	rjmp	.+126    	; 0xdd0 <__stack+0x571>
     d52:	09 2d       	mov	r16, r9
     d54:	85 37       	cpi	r24, 0x75	; 117
     d56:	21 f4       	brne	.+8      	; 0xd60 <__stack+0x501>
     d58:	0f 7e       	andi	r16, 0xEF	; 239
     d5a:	2a e0       	ldi	r18, 0x0A	; 10
     d5c:	30 e0       	ldi	r19, 0x00	; 0
     d5e:	1d c0       	rjmp	.+58     	; 0xd9a <__stack+0x53b>
     d60:	09 7f       	andi	r16, 0xF9	; 249
     d62:	8f 36       	cpi	r24, 0x6F	; 111
     d64:	91 f0       	breq	.+36     	; 0xd8a <__stack+0x52b>
     d66:	18 f4       	brcc	.+6      	; 0xd6e <__stack+0x50f>
     d68:	88 35       	cpi	r24, 0x58	; 88
     d6a:	59 f0       	breq	.+22     	; 0xd82 <__stack+0x523>
     d6c:	c3 c0       	rjmp	.+390    	; 0xef4 <__stack+0x695>
     d6e:	80 37       	cpi	r24, 0x70	; 112
     d70:	19 f0       	breq	.+6      	; 0xd78 <__stack+0x519>
     d72:	88 37       	cpi	r24, 0x78	; 120
     d74:	11 f0       	breq	.+4      	; 0xd7a <__stack+0x51b>
     d76:	be c0       	rjmp	.+380    	; 0xef4 <__stack+0x695>
     d78:	00 61       	ori	r16, 0x10	; 16
     d7a:	04 ff       	sbrs	r16, 4
     d7c:	09 c0       	rjmp	.+18     	; 0xd90 <__stack+0x531>
     d7e:	04 60       	ori	r16, 0x04	; 4
     d80:	07 c0       	rjmp	.+14     	; 0xd90 <__stack+0x531>
     d82:	94 fe       	sbrs	r9, 4
     d84:	08 c0       	rjmp	.+16     	; 0xd96 <__stack+0x537>
     d86:	06 60       	ori	r16, 0x06	; 6
     d88:	06 c0       	rjmp	.+12     	; 0xd96 <__stack+0x537>
     d8a:	28 e0       	ldi	r18, 0x08	; 8
     d8c:	30 e0       	ldi	r19, 0x00	; 0
     d8e:	05 c0       	rjmp	.+10     	; 0xd9a <__stack+0x53b>
     d90:	20 e1       	ldi	r18, 0x10	; 16
     d92:	30 e0       	ldi	r19, 0x00	; 0
     d94:	02 c0       	rjmp	.+4      	; 0xd9a <__stack+0x53b>
     d96:	20 e1       	ldi	r18, 0x10	; 16
     d98:	32 e0       	ldi	r19, 0x02	; 2
     d9a:	56 01       	movw	r10, r12
     d9c:	07 ff       	sbrs	r16, 7
     d9e:	09 c0       	rjmp	.+18     	; 0xdb2 <__stack+0x553>
     da0:	84 e0       	ldi	r24, 0x04	; 4
     da2:	a8 0e       	add	r10, r24
     da4:	b1 1c       	adc	r11, r1
     da6:	f6 01       	movw	r30, r12
     da8:	60 81       	ld	r22, Z
     daa:	71 81       	ldd	r23, Z+1	; 0x01
     dac:	82 81       	ldd	r24, Z+2	; 0x02
     dae:	93 81       	ldd	r25, Z+3	; 0x03
     db0:	08 c0       	rjmp	.+16     	; 0xdc2 <__stack+0x563>
     db2:	f2 e0       	ldi	r31, 0x02	; 2
     db4:	af 0e       	add	r10, r31
     db6:	b1 1c       	adc	r11, r1
     db8:	f6 01       	movw	r30, r12
     dba:	60 81       	ld	r22, Z
     dbc:	71 81       	ldd	r23, Z+1	; 0x01
     dbe:	80 e0       	ldi	r24, 0x00	; 0
     dc0:	90 e0       	ldi	r25, 0x00	; 0
     dc2:	a3 01       	movw	r20, r6
     dc4:	0e 94 44 09 	call	0x1288	; 0x1288 <__ultoa_invert>
     dc8:	c8 2e       	mov	r12, r24
     dca:	c6 18       	sub	r12, r6
     dcc:	0f 77       	andi	r16, 0x7F	; 127
     dce:	90 2e       	mov	r9, r16
     dd0:	96 fe       	sbrs	r9, 6
     dd2:	0b c0       	rjmp	.+22     	; 0xdea <__stack+0x58b>
     dd4:	09 2d       	mov	r16, r9
     dd6:	0e 7f       	andi	r16, 0xFE	; 254
     dd8:	c1 16       	cp	r12, r17
     dda:	50 f4       	brcc	.+20     	; 0xdf0 <__stack+0x591>
     ddc:	94 fe       	sbrs	r9, 4
     dde:	0a c0       	rjmp	.+20     	; 0xdf4 <__stack+0x595>
     de0:	92 fc       	sbrc	r9, 2
     de2:	08 c0       	rjmp	.+16     	; 0xdf4 <__stack+0x595>
     de4:	09 2d       	mov	r16, r9
     de6:	0e 7e       	andi	r16, 0xEE	; 238
     de8:	05 c0       	rjmp	.+10     	; 0xdf4 <__stack+0x595>
     dea:	dc 2c       	mov	r13, r12
     dec:	09 2d       	mov	r16, r9
     dee:	03 c0       	rjmp	.+6      	; 0xdf6 <__stack+0x597>
     df0:	dc 2c       	mov	r13, r12
     df2:	01 c0       	rjmp	.+2      	; 0xdf6 <__stack+0x597>
     df4:	d1 2e       	mov	r13, r17
     df6:	04 ff       	sbrs	r16, 4
     df8:	0d c0       	rjmp	.+26     	; 0xe14 <__stack+0x5b5>
     dfa:	fe 01       	movw	r30, r28
     dfc:	ec 0d       	add	r30, r12
     dfe:	f1 1d       	adc	r31, r1
     e00:	80 81       	ld	r24, Z
     e02:	80 33       	cpi	r24, 0x30	; 48
     e04:	11 f4       	brne	.+4      	; 0xe0a <__stack+0x5ab>
     e06:	09 7e       	andi	r16, 0xE9	; 233
     e08:	09 c0       	rjmp	.+18     	; 0xe1c <__stack+0x5bd>
     e0a:	02 ff       	sbrs	r16, 2
     e0c:	06 c0       	rjmp	.+12     	; 0xe1a <__stack+0x5bb>
     e0e:	d3 94       	inc	r13
     e10:	d3 94       	inc	r13
     e12:	04 c0       	rjmp	.+8      	; 0xe1c <__stack+0x5bd>
     e14:	80 2f       	mov	r24, r16
     e16:	86 78       	andi	r24, 0x86	; 134
     e18:	09 f0       	breq	.+2      	; 0xe1c <__stack+0x5bd>
     e1a:	d3 94       	inc	r13
     e1c:	03 fd       	sbrc	r16, 3
     e1e:	11 c0       	rjmp	.+34     	; 0xe42 <__stack+0x5e3>
     e20:	00 ff       	sbrs	r16, 0
     e22:	06 c0       	rjmp	.+12     	; 0xe30 <__stack+0x5d1>
     e24:	1c 2d       	mov	r17, r12
     e26:	d5 14       	cp	r13, r5
     e28:	80 f4       	brcc	.+32     	; 0xe4a <__stack+0x5eb>
     e2a:	15 0d       	add	r17, r5
     e2c:	1d 19       	sub	r17, r13
     e2e:	0d c0       	rjmp	.+26     	; 0xe4a <__stack+0x5eb>
     e30:	d5 14       	cp	r13, r5
     e32:	58 f4       	brcc	.+22     	; 0xe4a <__stack+0x5eb>
     e34:	b7 01       	movw	r22, r14
     e36:	80 e2       	ldi	r24, 0x20	; 32
     e38:	90 e0       	ldi	r25, 0x00	; 0
     e3a:	0e 94 cd 08 	call	0x119a	; 0x119a <fputc>
     e3e:	d3 94       	inc	r13
     e40:	f7 cf       	rjmp	.-18     	; 0xe30 <__stack+0x5d1>
     e42:	d5 14       	cp	r13, r5
     e44:	10 f4       	brcc	.+4      	; 0xe4a <__stack+0x5eb>
     e46:	5d 18       	sub	r5, r13
     e48:	01 c0       	rjmp	.+2      	; 0xe4c <__stack+0x5ed>
     e4a:	51 2c       	mov	r5, r1
     e4c:	04 ff       	sbrs	r16, 4
     e4e:	10 c0       	rjmp	.+32     	; 0xe70 <__stack+0x611>
     e50:	b7 01       	movw	r22, r14
     e52:	80 e3       	ldi	r24, 0x30	; 48
     e54:	90 e0       	ldi	r25, 0x00	; 0
     e56:	0e 94 cd 08 	call	0x119a	; 0x119a <fputc>
     e5a:	02 ff       	sbrs	r16, 2
     e5c:	17 c0       	rjmp	.+46     	; 0xe8c <__stack+0x62d>
     e5e:	01 fd       	sbrc	r16, 1
     e60:	03 c0       	rjmp	.+6      	; 0xe68 <__stack+0x609>
     e62:	88 e7       	ldi	r24, 0x78	; 120
     e64:	90 e0       	ldi	r25, 0x00	; 0
     e66:	02 c0       	rjmp	.+4      	; 0xe6c <__stack+0x60d>
     e68:	88 e5       	ldi	r24, 0x58	; 88
     e6a:	90 e0       	ldi	r25, 0x00	; 0
     e6c:	b7 01       	movw	r22, r14
     e6e:	0c c0       	rjmp	.+24     	; 0xe88 <__stack+0x629>
     e70:	80 2f       	mov	r24, r16
     e72:	86 78       	andi	r24, 0x86	; 134
     e74:	59 f0       	breq	.+22     	; 0xe8c <__stack+0x62d>
     e76:	01 ff       	sbrs	r16, 1
     e78:	02 c0       	rjmp	.+4      	; 0xe7e <__stack+0x61f>
     e7a:	8b e2       	ldi	r24, 0x2B	; 43
     e7c:	01 c0       	rjmp	.+2      	; 0xe80 <__stack+0x621>
     e7e:	80 e2       	ldi	r24, 0x20	; 32
     e80:	07 fd       	sbrc	r16, 7
     e82:	8d e2       	ldi	r24, 0x2D	; 45
     e84:	b7 01       	movw	r22, r14
     e86:	90 e0       	ldi	r25, 0x00	; 0
     e88:	0e 94 cd 08 	call	0x119a	; 0x119a <fputc>
     e8c:	c1 16       	cp	r12, r17
     e8e:	38 f4       	brcc	.+14     	; 0xe9e <__stack+0x63f>
     e90:	b7 01       	movw	r22, r14
     e92:	80 e3       	ldi	r24, 0x30	; 48
     e94:	90 e0       	ldi	r25, 0x00	; 0
     e96:	0e 94 cd 08 	call	0x119a	; 0x119a <fputc>
     e9a:	11 50       	subi	r17, 0x01	; 1
     e9c:	f7 cf       	rjmp	.-18     	; 0xe8c <__stack+0x62d>
     e9e:	ca 94       	dec	r12
     ea0:	f3 01       	movw	r30, r6
     ea2:	ec 0d       	add	r30, r12
     ea4:	f1 1d       	adc	r31, r1
     ea6:	80 81       	ld	r24, Z
     ea8:	b7 01       	movw	r22, r14
     eaa:	90 e0       	ldi	r25, 0x00	; 0
     eac:	0e 94 cd 08 	call	0x119a	; 0x119a <fputc>
     eb0:	c1 10       	cpse	r12, r1
     eb2:	f5 cf       	rjmp	.-22     	; 0xe9e <__stack+0x63f>
     eb4:	15 c0       	rjmp	.+42     	; 0xee0 <__stack+0x681>
     eb6:	f4 e0       	ldi	r31, 0x04	; 4
     eb8:	f5 15       	cp	r31, r5
     eba:	60 f5       	brcc	.+88     	; 0xf14 <__stack+0x6b5>
     ebc:	84 e0       	ldi	r24, 0x04	; 4
     ebe:	58 1a       	sub	r5, r24
     ec0:	93 fe       	sbrs	r9, 3
     ec2:	1f c0       	rjmp	.+62     	; 0xf02 <__stack+0x6a3>
     ec4:	01 11       	cpse	r16, r1
     ec6:	27 c0       	rjmp	.+78     	; 0xf16 <__stack+0x6b7>
     ec8:	2c 85       	ldd	r18, Y+12	; 0x0c
     eca:	23 ff       	sbrs	r18, 3
     ecc:	2a c0       	rjmp	.+84     	; 0xf22 <__stack+0x6c3>
     ece:	04 e5       	ldi	r16, 0x54	; 84
     ed0:	10 e0       	ldi	r17, 0x00	; 0
     ed2:	39 2d       	mov	r19, r9
     ed4:	30 71       	andi	r19, 0x10	; 16
     ed6:	93 2e       	mov	r9, r19
     ed8:	f8 01       	movw	r30, r16
     eda:	84 91       	lpm	r24, Z
     edc:	81 11       	cpse	r24, r1
     ede:	24 c0       	rjmp	.+72     	; 0xf28 <__stack+0x6c9>
     ee0:	55 20       	and	r5, r5
     ee2:	09 f4       	brne	.+2      	; 0xee6 <__stack+0x687>
     ee4:	e4 cc       	rjmp	.-1592   	; 0x8ae <__stack+0x4f>
     ee6:	b7 01       	movw	r22, r14
     ee8:	80 e2       	ldi	r24, 0x20	; 32
     eea:	90 e0       	ldi	r25, 0x00	; 0
     eec:	0e 94 cd 08 	call	0x119a	; 0x119a <fputc>
     ef0:	5a 94       	dec	r5
     ef2:	f6 cf       	rjmp	.-20     	; 0xee0 <__stack+0x681>
     ef4:	f7 01       	movw	r30, r14
     ef6:	86 81       	ldd	r24, Z+6	; 0x06
     ef8:	97 81       	ldd	r25, Z+7	; 0x07
     efa:	26 c0       	rjmp	.+76     	; 0xf48 <__stack+0x6e9>
     efc:	8f ef       	ldi	r24, 0xFF	; 255
     efe:	9f ef       	ldi	r25, 0xFF	; 255
     f00:	23 c0       	rjmp	.+70     	; 0xf48 <__stack+0x6e9>
     f02:	b7 01       	movw	r22, r14
     f04:	80 e2       	ldi	r24, 0x20	; 32
     f06:	90 e0       	ldi	r25, 0x00	; 0
     f08:	0e 94 cd 08 	call	0x119a	; 0x119a <fputc>
     f0c:	5a 94       	dec	r5
     f0e:	51 10       	cpse	r5, r1
     f10:	f8 cf       	rjmp	.-16     	; 0xf02 <__stack+0x6a3>
     f12:	d8 cf       	rjmp	.-80     	; 0xec4 <__stack+0x665>
     f14:	51 2c       	mov	r5, r1
     f16:	b7 01       	movw	r22, r14
     f18:	80 2f       	mov	r24, r16
     f1a:	90 e0       	ldi	r25, 0x00	; 0
     f1c:	0e 94 cd 08 	call	0x119a	; 0x119a <fputc>
     f20:	d3 cf       	rjmp	.-90     	; 0xec8 <__stack+0x669>
     f22:	08 e5       	ldi	r16, 0x58	; 88
     f24:	10 e0       	ldi	r17, 0x00	; 0
     f26:	d5 cf       	rjmp	.-86     	; 0xed2 <__stack+0x673>
     f28:	91 10       	cpse	r9, r1
     f2a:	80 52       	subi	r24, 0x20	; 32
     f2c:	b7 01       	movw	r22, r14
     f2e:	90 e0       	ldi	r25, 0x00	; 0
     f30:	0e 94 cd 08 	call	0x119a	; 0x119a <fputc>
     f34:	0f 5f       	subi	r16, 0xFF	; 255
     f36:	1f 4f       	sbci	r17, 0xFF	; 255
     f38:	cf cf       	rjmp	.-98     	; 0xed8 <__stack+0x679>
     f3a:	23 e0       	ldi	r18, 0x03	; 3
     f3c:	25 15       	cp	r18, r5
     f3e:	10 f4       	brcc	.+4      	; 0xf44 <__stack+0x6e5>
     f40:	83 e0       	ldi	r24, 0x03	; 3
     f42:	bd cf       	rjmp	.-134    	; 0xebe <__stack+0x65f>
     f44:	51 2c       	mov	r5, r1
     f46:	c0 cf       	rjmp	.-128    	; 0xec8 <__stack+0x669>
     f48:	60 96       	adiw	r28, 0x10	; 16
     f4a:	e2 e1       	ldi	r30, 0x12	; 18
     f4c:	0c 94 c4 07 	jmp	0xf88	; 0xf88 <__epilogue_restores__>

00000f50 <__prologue_saves__>:
     f50:	2f 92       	push	r2
     f52:	3f 92       	push	r3
     f54:	4f 92       	push	r4
     f56:	5f 92       	push	r5
     f58:	6f 92       	push	r6
     f5a:	7f 92       	push	r7
     f5c:	8f 92       	push	r8
     f5e:	9f 92       	push	r9
     f60:	af 92       	push	r10
     f62:	bf 92       	push	r11
     f64:	cf 92       	push	r12
     f66:	df 92       	push	r13
     f68:	ef 92       	push	r14
     f6a:	ff 92       	push	r15
     f6c:	0f 93       	push	r16
     f6e:	1f 93       	push	r17
     f70:	cf 93       	push	r28
     f72:	df 93       	push	r29
     f74:	cd b7       	in	r28, 0x3d	; 61
     f76:	de b7       	in	r29, 0x3e	; 62
     f78:	ca 1b       	sub	r28, r26
     f7a:	db 0b       	sbc	r29, r27
     f7c:	0f b6       	in	r0, 0x3f	; 63
     f7e:	f8 94       	cli
     f80:	de bf       	out	0x3e, r29	; 62
     f82:	0f be       	out	0x3f, r0	; 63
     f84:	cd bf       	out	0x3d, r28	; 61
     f86:	09 94       	ijmp

00000f88 <__epilogue_restores__>:
     f88:	2a 88       	ldd	r2, Y+18	; 0x12
     f8a:	39 88       	ldd	r3, Y+17	; 0x11
     f8c:	48 88       	ldd	r4, Y+16	; 0x10
     f8e:	5f 84       	ldd	r5, Y+15	; 0x0f
     f90:	6e 84       	ldd	r6, Y+14	; 0x0e
     f92:	7d 84       	ldd	r7, Y+13	; 0x0d
     f94:	8c 84       	ldd	r8, Y+12	; 0x0c
     f96:	9b 84       	ldd	r9, Y+11	; 0x0b
     f98:	aa 84       	ldd	r10, Y+10	; 0x0a
     f9a:	b9 84       	ldd	r11, Y+9	; 0x09
     f9c:	c8 84       	ldd	r12, Y+8	; 0x08
     f9e:	df 80       	ldd	r13, Y+7	; 0x07
     fa0:	ee 80       	ldd	r14, Y+6	; 0x06
     fa2:	fd 80       	ldd	r15, Y+5	; 0x05
     fa4:	0c 81       	ldd	r16, Y+4	; 0x04
     fa6:	1b 81       	ldd	r17, Y+3	; 0x03
     fa8:	aa 81       	ldd	r26, Y+2	; 0x02
     faa:	b9 81       	ldd	r27, Y+1	; 0x01
     fac:	ce 0f       	add	r28, r30
     fae:	d1 1d       	adc	r29, r1
     fb0:	0f b6       	in	r0, 0x3f	; 63
     fb2:	f8 94       	cli
     fb4:	de bf       	out	0x3e, r29	; 62
     fb6:	0f be       	out	0x3f, r0	; 63
     fb8:	cd bf       	out	0x3d, r28	; 61
     fba:	ed 01       	movw	r28, r26
     fbc:	08 95       	ret

00000fbe <__ftoa_engine>:
     fbe:	28 30       	cpi	r18, 0x08	; 8
     fc0:	08 f0       	brcs	.+2      	; 0xfc4 <__ftoa_engine+0x6>
     fc2:	27 e0       	ldi	r18, 0x07	; 7
     fc4:	33 27       	eor	r19, r19
     fc6:	da 01       	movw	r26, r20
     fc8:	99 0f       	add	r25, r25
     fca:	31 1d       	adc	r19, r1
     fcc:	87 fd       	sbrc	r24, 7
     fce:	91 60       	ori	r25, 0x01	; 1
     fd0:	00 96       	adiw	r24, 0x00	; 0
     fd2:	61 05       	cpc	r22, r1
     fd4:	71 05       	cpc	r23, r1
     fd6:	39 f4       	brne	.+14     	; 0xfe6 <__ftoa_engine+0x28>
     fd8:	32 60       	ori	r19, 0x02	; 2
     fda:	2e 5f       	subi	r18, 0xFE	; 254
     fdc:	3d 93       	st	X+, r19
     fde:	30 e3       	ldi	r19, 0x30	; 48
     fe0:	2a 95       	dec	r18
     fe2:	e1 f7       	brne	.-8      	; 0xfdc <__ftoa_engine+0x1e>
     fe4:	08 95       	ret
     fe6:	9f 3f       	cpi	r25, 0xFF	; 255
     fe8:	30 f0       	brcs	.+12     	; 0xff6 <__ftoa_engine+0x38>
     fea:	80 38       	cpi	r24, 0x80	; 128
     fec:	71 05       	cpc	r23, r1
     fee:	61 05       	cpc	r22, r1
     ff0:	09 f0       	breq	.+2      	; 0xff4 <__ftoa_engine+0x36>
     ff2:	3c 5f       	subi	r19, 0xFC	; 252
     ff4:	3c 5f       	subi	r19, 0xFC	; 252
     ff6:	3d 93       	st	X+, r19
     ff8:	91 30       	cpi	r25, 0x01	; 1
     ffa:	08 f0       	brcs	.+2      	; 0xffe <__ftoa_engine+0x40>
     ffc:	80 68       	ori	r24, 0x80	; 128
     ffe:	91 1d       	adc	r25, r1
    1000:	df 93       	push	r29
    1002:	cf 93       	push	r28
    1004:	1f 93       	push	r17
    1006:	0f 93       	push	r16
    1008:	ff 92       	push	r15
    100a:	ef 92       	push	r14
    100c:	19 2f       	mov	r17, r25
    100e:	98 7f       	andi	r25, 0xF8	; 248
    1010:	96 95       	lsr	r25
    1012:	e9 2f       	mov	r30, r25
    1014:	96 95       	lsr	r25
    1016:	96 95       	lsr	r25
    1018:	e9 0f       	add	r30, r25
    101a:	ff 27       	eor	r31, r31
    101c:	ea 54       	subi	r30, 0x4A	; 74
    101e:	ff 4f       	sbci	r31, 0xFF	; 255
    1020:	99 27       	eor	r25, r25
    1022:	33 27       	eor	r19, r19
    1024:	ee 24       	eor	r14, r14
    1026:	ff 24       	eor	r15, r15
    1028:	a7 01       	movw	r20, r14
    102a:	e7 01       	movw	r28, r14
    102c:	05 90       	lpm	r0, Z+
    102e:	08 94       	sec
    1030:	07 94       	ror	r0
    1032:	28 f4       	brcc	.+10     	; 0x103e <__ftoa_engine+0x80>
    1034:	36 0f       	add	r19, r22
    1036:	e7 1e       	adc	r14, r23
    1038:	f8 1e       	adc	r15, r24
    103a:	49 1f       	adc	r20, r25
    103c:	51 1d       	adc	r21, r1
    103e:	66 0f       	add	r22, r22
    1040:	77 1f       	adc	r23, r23
    1042:	88 1f       	adc	r24, r24
    1044:	99 1f       	adc	r25, r25
    1046:	06 94       	lsr	r0
    1048:	a1 f7       	brne	.-24     	; 0x1032 <__ftoa_engine+0x74>
    104a:	05 90       	lpm	r0, Z+
    104c:	07 94       	ror	r0
    104e:	28 f4       	brcc	.+10     	; 0x105a <__ftoa_engine+0x9c>
    1050:	e7 0e       	add	r14, r23
    1052:	f8 1e       	adc	r15, r24
    1054:	49 1f       	adc	r20, r25
    1056:	56 1f       	adc	r21, r22
    1058:	c1 1d       	adc	r28, r1
    105a:	77 0f       	add	r23, r23
    105c:	88 1f       	adc	r24, r24
    105e:	99 1f       	adc	r25, r25
    1060:	66 1f       	adc	r22, r22
    1062:	06 94       	lsr	r0
    1064:	a1 f7       	brne	.-24     	; 0x104e <__ftoa_engine+0x90>
    1066:	05 90       	lpm	r0, Z+
    1068:	07 94       	ror	r0
    106a:	28 f4       	brcc	.+10     	; 0x1076 <__ftoa_engine+0xb8>
    106c:	f8 0e       	add	r15, r24
    106e:	49 1f       	adc	r20, r25
    1070:	56 1f       	adc	r21, r22
    1072:	c7 1f       	adc	r28, r23
    1074:	d1 1d       	adc	r29, r1
    1076:	88 0f       	add	r24, r24
    1078:	99 1f       	adc	r25, r25
    107a:	66 1f       	adc	r22, r22
    107c:	77 1f       	adc	r23, r23
    107e:	06 94       	lsr	r0
    1080:	a1 f7       	brne	.-24     	; 0x106a <__ftoa_engine+0xac>
    1082:	05 90       	lpm	r0, Z+
    1084:	07 94       	ror	r0
    1086:	20 f4       	brcc	.+8      	; 0x1090 <__ftoa_engine+0xd2>
    1088:	49 0f       	add	r20, r25
    108a:	56 1f       	adc	r21, r22
    108c:	c7 1f       	adc	r28, r23
    108e:	d8 1f       	adc	r29, r24
    1090:	99 0f       	add	r25, r25
    1092:	66 1f       	adc	r22, r22
    1094:	77 1f       	adc	r23, r23
    1096:	88 1f       	adc	r24, r24
    1098:	06 94       	lsr	r0
    109a:	a9 f7       	brne	.-22     	; 0x1086 <__ftoa_engine+0xc8>
    109c:	84 91       	lpm	r24, Z
    109e:	10 95       	com	r17
    10a0:	17 70       	andi	r17, 0x07	; 7
    10a2:	41 f0       	breq	.+16     	; 0x10b4 <__ftoa_engine+0xf6>
    10a4:	d6 95       	lsr	r29
    10a6:	c7 95       	ror	r28
    10a8:	57 95       	ror	r21
    10aa:	47 95       	ror	r20
    10ac:	f7 94       	ror	r15
    10ae:	e7 94       	ror	r14
    10b0:	1a 95       	dec	r17
    10b2:	c1 f7       	brne	.-16     	; 0x10a4 <__ftoa_engine+0xe6>
    10b4:	ec e5       	ldi	r30, 0x5C	; 92
    10b6:	f0 e0       	ldi	r31, 0x00	; 0
    10b8:	68 94       	set
    10ba:	15 90       	lpm	r1, Z+
    10bc:	15 91       	lpm	r17, Z+
    10be:	35 91       	lpm	r19, Z+
    10c0:	65 91       	lpm	r22, Z+
    10c2:	95 91       	lpm	r25, Z+
    10c4:	05 90       	lpm	r0, Z+
    10c6:	7f e2       	ldi	r23, 0x2F	; 47
    10c8:	73 95       	inc	r23
    10ca:	e1 18       	sub	r14, r1
    10cc:	f1 0a       	sbc	r15, r17
    10ce:	43 0b       	sbc	r20, r19
    10d0:	56 0b       	sbc	r21, r22
    10d2:	c9 0b       	sbc	r28, r25
    10d4:	d0 09       	sbc	r29, r0
    10d6:	c0 f7       	brcc	.-16     	; 0x10c8 <__ftoa_engine+0x10a>
    10d8:	e1 0c       	add	r14, r1
    10da:	f1 1e       	adc	r15, r17
    10dc:	43 1f       	adc	r20, r19
    10de:	56 1f       	adc	r21, r22
    10e0:	c9 1f       	adc	r28, r25
    10e2:	d0 1d       	adc	r29, r0
    10e4:	7e f4       	brtc	.+30     	; 0x1104 <__ftoa_engine+0x146>
    10e6:	70 33       	cpi	r23, 0x30	; 48
    10e8:	11 f4       	brne	.+4      	; 0x10ee <__ftoa_engine+0x130>
    10ea:	8a 95       	dec	r24
    10ec:	e6 cf       	rjmp	.-52     	; 0x10ba <__ftoa_engine+0xfc>
    10ee:	e8 94       	clt
    10f0:	01 50       	subi	r16, 0x01	; 1
    10f2:	30 f0       	brcs	.+12     	; 0x1100 <__ftoa_engine+0x142>
    10f4:	08 0f       	add	r16, r24
    10f6:	0a f4       	brpl	.+2      	; 0x10fa <__ftoa_engine+0x13c>
    10f8:	00 27       	eor	r16, r16
    10fa:	02 17       	cp	r16, r18
    10fc:	08 f4       	brcc	.+2      	; 0x1100 <__ftoa_engine+0x142>
    10fe:	20 2f       	mov	r18, r16
    1100:	23 95       	inc	r18
    1102:	02 2f       	mov	r16, r18
    1104:	7a 33       	cpi	r23, 0x3A	; 58
    1106:	28 f0       	brcs	.+10     	; 0x1112 <__ftoa_engine+0x154>
    1108:	79 e3       	ldi	r23, 0x39	; 57
    110a:	7d 93       	st	X+, r23
    110c:	2a 95       	dec	r18
    110e:	e9 f7       	brne	.-6      	; 0x110a <__ftoa_engine+0x14c>
    1110:	10 c0       	rjmp	.+32     	; 0x1132 <__ftoa_engine+0x174>
    1112:	7d 93       	st	X+, r23
    1114:	2a 95       	dec	r18
    1116:	89 f6       	brne	.-94     	; 0x10ba <__ftoa_engine+0xfc>
    1118:	06 94       	lsr	r0
    111a:	97 95       	ror	r25
    111c:	67 95       	ror	r22
    111e:	37 95       	ror	r19
    1120:	17 95       	ror	r17
    1122:	17 94       	ror	r1
    1124:	e1 18       	sub	r14, r1
    1126:	f1 0a       	sbc	r15, r17
    1128:	43 0b       	sbc	r20, r19
    112a:	56 0b       	sbc	r21, r22
    112c:	c9 0b       	sbc	r28, r25
    112e:	d0 09       	sbc	r29, r0
    1130:	98 f0       	brcs	.+38     	; 0x1158 <__ftoa_engine+0x19a>
    1132:	23 95       	inc	r18
    1134:	7e 91       	ld	r23, -X
    1136:	73 95       	inc	r23
    1138:	7a 33       	cpi	r23, 0x3A	; 58
    113a:	08 f0       	brcs	.+2      	; 0x113e <__ftoa_engine+0x180>
    113c:	70 e3       	ldi	r23, 0x30	; 48
    113e:	7c 93       	st	X, r23
    1140:	20 13       	cpse	r18, r16
    1142:	b8 f7       	brcc	.-18     	; 0x1132 <__ftoa_engine+0x174>
    1144:	7e 91       	ld	r23, -X
    1146:	70 61       	ori	r23, 0x10	; 16
    1148:	7d 93       	st	X+, r23
    114a:	30 f0       	brcs	.+12     	; 0x1158 <__ftoa_engine+0x19a>
    114c:	83 95       	inc	r24
    114e:	71 e3       	ldi	r23, 0x31	; 49
    1150:	7d 93       	st	X+, r23
    1152:	70 e3       	ldi	r23, 0x30	; 48
    1154:	2a 95       	dec	r18
    1156:	e1 f7       	brne	.-8      	; 0x1150 <__ftoa_engine+0x192>
    1158:	11 24       	eor	r1, r1
    115a:	ef 90       	pop	r14
    115c:	ff 90       	pop	r15
    115e:	0f 91       	pop	r16
    1160:	1f 91       	pop	r17
    1162:	cf 91       	pop	r28
    1164:	df 91       	pop	r29
    1166:	99 27       	eor	r25, r25
    1168:	87 fd       	sbrc	r24, 7
    116a:	90 95       	com	r25
    116c:	08 95       	ret

0000116e <strnlen_P>:
    116e:	fc 01       	movw	r30, r24
    1170:	05 90       	lpm	r0, Z+
    1172:	61 50       	subi	r22, 0x01	; 1
    1174:	70 40       	sbci	r23, 0x00	; 0
    1176:	01 10       	cpse	r0, r1
    1178:	d8 f7       	brcc	.-10     	; 0x1170 <strnlen_P+0x2>
    117a:	80 95       	com	r24
    117c:	90 95       	com	r25
    117e:	8e 0f       	add	r24, r30
    1180:	9f 1f       	adc	r25, r31
    1182:	08 95       	ret

00001184 <strnlen>:
    1184:	fc 01       	movw	r30, r24
    1186:	61 50       	subi	r22, 0x01	; 1
    1188:	70 40       	sbci	r23, 0x00	; 0
    118a:	01 90       	ld	r0, Z+
    118c:	01 10       	cpse	r0, r1
    118e:	d8 f7       	brcc	.-10     	; 0x1186 <strnlen+0x2>
    1190:	80 95       	com	r24
    1192:	90 95       	com	r25
    1194:	8e 0f       	add	r24, r30
    1196:	9f 1f       	adc	r25, r31
    1198:	08 95       	ret

0000119a <fputc>:
    119a:	0f 93       	push	r16
    119c:	1f 93       	push	r17
    119e:	cf 93       	push	r28
    11a0:	df 93       	push	r29
    11a2:	fb 01       	movw	r30, r22
    11a4:	23 81       	ldd	r18, Z+3	; 0x03
    11a6:	21 fd       	sbrc	r18, 1
    11a8:	03 c0       	rjmp	.+6      	; 0x11b0 <fputc+0x16>
    11aa:	8f ef       	ldi	r24, 0xFF	; 255
    11ac:	9f ef       	ldi	r25, 0xFF	; 255
    11ae:	2c c0       	rjmp	.+88     	; 0x1208 <fputc+0x6e>
    11b0:	22 ff       	sbrs	r18, 2
    11b2:	16 c0       	rjmp	.+44     	; 0x11e0 <fputc+0x46>
    11b4:	46 81       	ldd	r20, Z+6	; 0x06
    11b6:	57 81       	ldd	r21, Z+7	; 0x07
    11b8:	24 81       	ldd	r18, Z+4	; 0x04
    11ba:	35 81       	ldd	r19, Z+5	; 0x05
    11bc:	42 17       	cp	r20, r18
    11be:	53 07       	cpc	r21, r19
    11c0:	44 f4       	brge	.+16     	; 0x11d2 <fputc+0x38>
    11c2:	a0 81       	ld	r26, Z
    11c4:	b1 81       	ldd	r27, Z+1	; 0x01
    11c6:	9d 01       	movw	r18, r26
    11c8:	2f 5f       	subi	r18, 0xFF	; 255
    11ca:	3f 4f       	sbci	r19, 0xFF	; 255
    11cc:	31 83       	std	Z+1, r19	; 0x01
    11ce:	20 83       	st	Z, r18
    11d0:	8c 93       	st	X, r24
    11d2:	26 81       	ldd	r18, Z+6	; 0x06
    11d4:	37 81       	ldd	r19, Z+7	; 0x07
    11d6:	2f 5f       	subi	r18, 0xFF	; 255
    11d8:	3f 4f       	sbci	r19, 0xFF	; 255
    11da:	37 83       	std	Z+7, r19	; 0x07
    11dc:	26 83       	std	Z+6, r18	; 0x06
    11de:	14 c0       	rjmp	.+40     	; 0x1208 <fputc+0x6e>
    11e0:	8b 01       	movw	r16, r22
    11e2:	ec 01       	movw	r28, r24
    11e4:	fb 01       	movw	r30, r22
    11e6:	00 84       	ldd	r0, Z+8	; 0x08
    11e8:	f1 85       	ldd	r31, Z+9	; 0x09
    11ea:	e0 2d       	mov	r30, r0
    11ec:	09 95       	icall
    11ee:	89 2b       	or	r24, r25
    11f0:	e1 f6       	brne	.-72     	; 0x11aa <fputc+0x10>
    11f2:	d8 01       	movw	r26, r16
    11f4:	16 96       	adiw	r26, 0x06	; 6
    11f6:	8d 91       	ld	r24, X+
    11f8:	9c 91       	ld	r25, X
    11fa:	17 97       	sbiw	r26, 0x07	; 7
    11fc:	01 96       	adiw	r24, 0x01	; 1
    11fe:	17 96       	adiw	r26, 0x07	; 7
    1200:	9c 93       	st	X, r25
    1202:	8e 93       	st	-X, r24
    1204:	16 97       	sbiw	r26, 0x06	; 6
    1206:	ce 01       	movw	r24, r28
    1208:	df 91       	pop	r29
    120a:	cf 91       	pop	r28
    120c:	1f 91       	pop	r17
    120e:	0f 91       	pop	r16
    1210:	08 95       	ret

00001212 <sprintf>:
    1212:	ae e0       	ldi	r26, 0x0E	; 14
    1214:	b0 e0       	ldi	r27, 0x00	; 0
    1216:	ef e0       	ldi	r30, 0x0F	; 15
    1218:	f9 e0       	ldi	r31, 0x09	; 9
    121a:	0c 94 b6 07 	jmp	0xf6c	; 0xf6c <__prologue_saves__+0x1c>
    121e:	0d 89       	ldd	r16, Y+21	; 0x15
    1220:	1e 89       	ldd	r17, Y+22	; 0x16
    1222:	86 e0       	ldi	r24, 0x06	; 6
    1224:	8c 83       	std	Y+4, r24	; 0x04
    1226:	1a 83       	std	Y+2, r17	; 0x02
    1228:	09 83       	std	Y+1, r16	; 0x01
    122a:	8f ef       	ldi	r24, 0xFF	; 255
    122c:	9f e7       	ldi	r25, 0x7F	; 127
    122e:	9e 83       	std	Y+6, r25	; 0x06
    1230:	8d 83       	std	Y+5, r24	; 0x05
    1232:	ae 01       	movw	r20, r28
    1234:	47 5e       	subi	r20, 0xE7	; 231
    1236:	5f 4f       	sbci	r21, 0xFF	; 255
    1238:	6f 89       	ldd	r22, Y+23	; 0x17
    123a:	78 8d       	ldd	r23, Y+24	; 0x18
    123c:	ce 01       	movw	r24, r28
    123e:	01 96       	adiw	r24, 0x01	; 1
    1240:	0e 94 2b 04 	call	0x856	; 0x856 <vfprintf>
    1244:	ef 81       	ldd	r30, Y+7	; 0x07
    1246:	f8 85       	ldd	r31, Y+8	; 0x08
    1248:	e0 0f       	add	r30, r16
    124a:	f1 1f       	adc	r31, r17
    124c:	10 82       	st	Z, r1
    124e:	2e 96       	adiw	r28, 0x0e	; 14
    1250:	e4 e0       	ldi	r30, 0x04	; 4
    1252:	0c 94 d2 07 	jmp	0xfa4	; 0xfa4 <__epilogue_restores__+0x1c>

00001256 <sscanf>:
    1256:	ae e0       	ldi	r26, 0x0E	; 14
    1258:	b0 e0       	ldi	r27, 0x00	; 0
    125a:	e1 e3       	ldi	r30, 0x31	; 49
    125c:	f9 e0       	ldi	r31, 0x09	; 9
    125e:	0c 94 b8 07 	jmp	0xf70	; 0xf70 <__prologue_saves__+0x20>
    1262:	85 e0       	ldi	r24, 0x05	; 5
    1264:	8c 83       	std	Y+4, r24	; 0x04
    1266:	8b 89       	ldd	r24, Y+19	; 0x13
    1268:	9c 89       	ldd	r25, Y+20	; 0x14
    126a:	9a 83       	std	Y+2, r25	; 0x02
    126c:	89 83       	std	Y+1, r24	; 0x01
    126e:	ae 01       	movw	r20, r28
    1270:	49 5e       	subi	r20, 0xE9	; 233
    1272:	5f 4f       	sbci	r21, 0xFF	; 255
    1274:	6d 89       	ldd	r22, Y+21	; 0x15
    1276:	7e 89       	ldd	r23, Y+22	; 0x16
    1278:	ce 01       	movw	r24, r28
    127a:	01 96       	adiw	r24, 0x01	; 1
    127c:	0e 94 3e 0b 	call	0x167c	; 0x167c <vfscanf>
    1280:	2e 96       	adiw	r28, 0x0e	; 14
    1282:	e2 e0       	ldi	r30, 0x02	; 2
    1284:	0c 94 d4 07 	jmp	0xfa8	; 0xfa8 <__epilogue_restores__+0x20>

00001288 <__ultoa_invert>:
    1288:	fa 01       	movw	r30, r20
    128a:	aa 27       	eor	r26, r26
    128c:	28 30       	cpi	r18, 0x08	; 8
    128e:	51 f1       	breq	.+84     	; 0x12e4 <__ultoa_invert+0x5c>
    1290:	20 31       	cpi	r18, 0x10	; 16
    1292:	81 f1       	breq	.+96     	; 0x12f4 <__ultoa_invert+0x6c>
    1294:	e8 94       	clt
    1296:	6f 93       	push	r22
    1298:	6e 7f       	andi	r22, 0xFE	; 254
    129a:	6e 5f       	subi	r22, 0xFE	; 254
    129c:	7f 4f       	sbci	r23, 0xFF	; 255
    129e:	8f 4f       	sbci	r24, 0xFF	; 255
    12a0:	9f 4f       	sbci	r25, 0xFF	; 255
    12a2:	af 4f       	sbci	r26, 0xFF	; 255
    12a4:	b1 e0       	ldi	r27, 0x01	; 1
    12a6:	3e d0       	rcall	.+124    	; 0x1324 <__ultoa_invert+0x9c>
    12a8:	b4 e0       	ldi	r27, 0x04	; 4
    12aa:	3c d0       	rcall	.+120    	; 0x1324 <__ultoa_invert+0x9c>
    12ac:	67 0f       	add	r22, r23
    12ae:	78 1f       	adc	r23, r24
    12b0:	89 1f       	adc	r24, r25
    12b2:	9a 1f       	adc	r25, r26
    12b4:	a1 1d       	adc	r26, r1
    12b6:	68 0f       	add	r22, r24
    12b8:	79 1f       	adc	r23, r25
    12ba:	8a 1f       	adc	r24, r26
    12bc:	91 1d       	adc	r25, r1
    12be:	a1 1d       	adc	r26, r1
    12c0:	6a 0f       	add	r22, r26
    12c2:	71 1d       	adc	r23, r1
    12c4:	81 1d       	adc	r24, r1
    12c6:	91 1d       	adc	r25, r1
    12c8:	a1 1d       	adc	r26, r1
    12ca:	20 d0       	rcall	.+64     	; 0x130c <__ultoa_invert+0x84>
    12cc:	09 f4       	brne	.+2      	; 0x12d0 <__ultoa_invert+0x48>
    12ce:	68 94       	set
    12d0:	3f 91       	pop	r19
    12d2:	2a e0       	ldi	r18, 0x0A	; 10
    12d4:	26 9f       	mul	r18, r22
    12d6:	11 24       	eor	r1, r1
    12d8:	30 19       	sub	r19, r0
    12da:	30 5d       	subi	r19, 0xD0	; 208
    12dc:	31 93       	st	Z+, r19
    12de:	de f6       	brtc	.-74     	; 0x1296 <__ultoa_invert+0xe>
    12e0:	cf 01       	movw	r24, r30
    12e2:	08 95       	ret
    12e4:	46 2f       	mov	r20, r22
    12e6:	47 70       	andi	r20, 0x07	; 7
    12e8:	40 5d       	subi	r20, 0xD0	; 208
    12ea:	41 93       	st	Z+, r20
    12ec:	b3 e0       	ldi	r27, 0x03	; 3
    12ee:	0f d0       	rcall	.+30     	; 0x130e <__ultoa_invert+0x86>
    12f0:	c9 f7       	brne	.-14     	; 0x12e4 <__ultoa_invert+0x5c>
    12f2:	f6 cf       	rjmp	.-20     	; 0x12e0 <__ultoa_invert+0x58>
    12f4:	46 2f       	mov	r20, r22
    12f6:	4f 70       	andi	r20, 0x0F	; 15
    12f8:	40 5d       	subi	r20, 0xD0	; 208
    12fa:	4a 33       	cpi	r20, 0x3A	; 58
    12fc:	18 f0       	brcs	.+6      	; 0x1304 <__ultoa_invert+0x7c>
    12fe:	49 5d       	subi	r20, 0xD9	; 217
    1300:	31 fd       	sbrc	r19, 1
    1302:	40 52       	subi	r20, 0x20	; 32
    1304:	41 93       	st	Z+, r20
    1306:	02 d0       	rcall	.+4      	; 0x130c <__ultoa_invert+0x84>
    1308:	a9 f7       	brne	.-22     	; 0x12f4 <__ultoa_invert+0x6c>
    130a:	ea cf       	rjmp	.-44     	; 0x12e0 <__ultoa_invert+0x58>
    130c:	b4 e0       	ldi	r27, 0x04	; 4
    130e:	a6 95       	lsr	r26
    1310:	97 95       	ror	r25
    1312:	87 95       	ror	r24
    1314:	77 95       	ror	r23
    1316:	67 95       	ror	r22
    1318:	ba 95       	dec	r27
    131a:	c9 f7       	brne	.-14     	; 0x130e <__ultoa_invert+0x86>
    131c:	00 97       	sbiw	r24, 0x00	; 0
    131e:	61 05       	cpc	r22, r1
    1320:	71 05       	cpc	r23, r1
    1322:	08 95       	ret
    1324:	9b 01       	movw	r18, r22
    1326:	ac 01       	movw	r20, r24
    1328:	0a 2e       	mov	r0, r26
    132a:	06 94       	lsr	r0
    132c:	57 95       	ror	r21
    132e:	47 95       	ror	r20
    1330:	37 95       	ror	r19
    1332:	27 95       	ror	r18
    1334:	ba 95       	dec	r27
    1336:	c9 f7       	brne	.-14     	; 0x132a <__ultoa_invert+0xa2>
    1338:	62 0f       	add	r22, r18
    133a:	73 1f       	adc	r23, r19
    133c:	84 1f       	adc	r24, r20
    133e:	95 1f       	adc	r25, r21
    1340:	a0 1d       	adc	r26, r0
    1342:	08 95       	ret

00001344 <putval>:
    1344:	20 fd       	sbrc	r18, 0
    1346:	09 c0       	rjmp	.+18     	; 0x135a <putval+0x16>
    1348:	fc 01       	movw	r30, r24
    134a:	23 fd       	sbrc	r18, 3
    134c:	05 c0       	rjmp	.+10     	; 0x1358 <putval+0x14>
    134e:	22 ff       	sbrs	r18, 2
    1350:	02 c0       	rjmp	.+4      	; 0x1356 <putval+0x12>
    1352:	73 83       	std	Z+3, r23	; 0x03
    1354:	62 83       	std	Z+2, r22	; 0x02
    1356:	51 83       	std	Z+1, r21	; 0x01
    1358:	40 83       	st	Z, r20
    135a:	08 95       	ret

0000135c <mulacc>:
    135c:	44 fd       	sbrc	r20, 4
    135e:	17 c0       	rjmp	.+46     	; 0x138e <mulacc+0x32>
    1360:	46 fd       	sbrc	r20, 6
    1362:	17 c0       	rjmp	.+46     	; 0x1392 <mulacc+0x36>
    1364:	ab 01       	movw	r20, r22
    1366:	bc 01       	movw	r22, r24
    1368:	da 01       	movw	r26, r20
    136a:	fb 01       	movw	r30, r22
    136c:	aa 0f       	add	r26, r26
    136e:	bb 1f       	adc	r27, r27
    1370:	ee 1f       	adc	r30, r30
    1372:	ff 1f       	adc	r31, r31
    1374:	10 94       	com	r1
    1376:	d1 f7       	brne	.-12     	; 0x136c <mulacc+0x10>
    1378:	4a 0f       	add	r20, r26
    137a:	5b 1f       	adc	r21, r27
    137c:	6e 1f       	adc	r22, r30
    137e:	7f 1f       	adc	r23, r31
    1380:	cb 01       	movw	r24, r22
    1382:	ba 01       	movw	r22, r20
    1384:	66 0f       	add	r22, r22
    1386:	77 1f       	adc	r23, r23
    1388:	88 1f       	adc	r24, r24
    138a:	99 1f       	adc	r25, r25
    138c:	09 c0       	rjmp	.+18     	; 0x13a0 <mulacc+0x44>
    138e:	33 e0       	ldi	r19, 0x03	; 3
    1390:	01 c0       	rjmp	.+2      	; 0x1394 <mulacc+0x38>
    1392:	34 e0       	ldi	r19, 0x04	; 4
    1394:	66 0f       	add	r22, r22
    1396:	77 1f       	adc	r23, r23
    1398:	88 1f       	adc	r24, r24
    139a:	99 1f       	adc	r25, r25
    139c:	31 50       	subi	r19, 0x01	; 1
    139e:	d1 f7       	brne	.-12     	; 0x1394 <mulacc+0x38>
    13a0:	62 0f       	add	r22, r18
    13a2:	71 1d       	adc	r23, r1
    13a4:	81 1d       	adc	r24, r1
    13a6:	91 1d       	adc	r25, r1
    13a8:	08 95       	ret

000013aa <skip_spaces>:
    13aa:	0f 93       	push	r16
    13ac:	1f 93       	push	r17
    13ae:	cf 93       	push	r28
    13b0:	df 93       	push	r29
    13b2:	8c 01       	movw	r16, r24
    13b4:	c8 01       	movw	r24, r16
    13b6:	0e 94 63 0c 	call	0x18c6	; 0x18c6 <fgetc>
    13ba:	ec 01       	movw	r28, r24
    13bc:	97 fd       	sbrc	r25, 7
    13be:	08 c0       	rjmp	.+16     	; 0x13d0 <skip_spaces+0x26>
    13c0:	0e 94 4f 0c 	call	0x189e	; 0x189e <isspace>
    13c4:	89 2b       	or	r24, r25
    13c6:	b1 f7       	brne	.-20     	; 0x13b4 <skip_spaces+0xa>
    13c8:	b8 01       	movw	r22, r16
    13ca:	ce 01       	movw	r24, r28
    13cc:	0e 94 a1 0c 	call	0x1942	; 0x1942 <ungetc>
    13d0:	ce 01       	movw	r24, r28
    13d2:	df 91       	pop	r29
    13d4:	cf 91       	pop	r28
    13d6:	1f 91       	pop	r17
    13d8:	0f 91       	pop	r16
    13da:	08 95       	ret

000013dc <conv_int>:
    13dc:	8f 92       	push	r8
    13de:	9f 92       	push	r9
    13e0:	af 92       	push	r10
    13e2:	bf 92       	push	r11
    13e4:	ef 92       	push	r14
    13e6:	ff 92       	push	r15
    13e8:	0f 93       	push	r16
    13ea:	1f 93       	push	r17
    13ec:	cf 93       	push	r28
    13ee:	df 93       	push	r29
    13f0:	8c 01       	movw	r16, r24
    13f2:	d6 2f       	mov	r29, r22
    13f4:	7a 01       	movw	r14, r20
    13f6:	b2 2e       	mov	r11, r18
    13f8:	0e 94 63 0c 	call	0x18c6	; 0x18c6 <fgetc>
    13fc:	9c 01       	movw	r18, r24
    13fe:	33 27       	eor	r19, r19
    1400:	2b 32       	cpi	r18, 0x2B	; 43
    1402:	31 05       	cpc	r19, r1
    1404:	31 f0       	breq	.+12     	; 0x1412 <conv_int+0x36>
    1406:	2d 32       	cpi	r18, 0x2D	; 45
    1408:	31 05       	cpc	r19, r1
    140a:	61 f4       	brne	.+24     	; 0x1424 <conv_int+0x48>
    140c:	8b 2d       	mov	r24, r11
    140e:	80 68       	ori	r24, 0x80	; 128
    1410:	b8 2e       	mov	r11, r24
    1412:	d1 50       	subi	r29, 0x01	; 1
    1414:	11 f4       	brne	.+4      	; 0x141a <conv_int+0x3e>
    1416:	80 e0       	ldi	r24, 0x00	; 0
    1418:	68 c0       	rjmp	.+208    	; 0x14ea <conv_int+0x10e>
    141a:	c8 01       	movw	r24, r16
    141c:	0e 94 63 0c 	call	0x18c6	; 0x18c6 <fgetc>
    1420:	97 fd       	sbrc	r25, 7
    1422:	f9 cf       	rjmp	.-14     	; 0x1416 <conv_int+0x3a>
    1424:	cb 2d       	mov	r28, r11
    1426:	cd 7f       	andi	r28, 0xFD	; 253
    1428:	2b 2d       	mov	r18, r11
    142a:	20 73       	andi	r18, 0x30	; 48
    142c:	09 f5       	brne	.+66     	; 0x1470 <conv_int+0x94>
    142e:	80 33       	cpi	r24, 0x30	; 48
    1430:	f9 f4       	brne	.+62     	; 0x1470 <conv_int+0x94>
    1432:	aa 24       	eor	r10, r10
    1434:	aa 94       	dec	r10
    1436:	ad 0e       	add	r10, r29
    1438:	09 f4       	brne	.+2      	; 0x143c <conv_int+0x60>
    143a:	43 c0       	rjmp	.+134    	; 0x14c2 <conv_int+0xe6>
    143c:	c8 01       	movw	r24, r16
    143e:	0e 94 63 0c 	call	0x18c6	; 0x18c6 <fgetc>
    1442:	97 fd       	sbrc	r25, 7
    1444:	3e c0       	rjmp	.+124    	; 0x14c2 <conv_int+0xe6>
    1446:	9c 01       	movw	r18, r24
    1448:	2f 7d       	andi	r18, 0xDF	; 223
    144a:	33 27       	eor	r19, r19
    144c:	28 35       	cpi	r18, 0x58	; 88
    144e:	31 05       	cpc	r19, r1
    1450:	49 f4       	brne	.+18     	; 0x1464 <conv_int+0x88>
    1452:	c2 64       	ori	r28, 0x42	; 66
    1454:	d2 50       	subi	r29, 0x02	; 2
    1456:	a9 f1       	breq	.+106    	; 0x14c2 <conv_int+0xe6>
    1458:	c8 01       	movw	r24, r16
    145a:	0e 94 63 0c 	call	0x18c6	; 0x18c6 <fgetc>
    145e:	97 ff       	sbrs	r25, 7
    1460:	07 c0       	rjmp	.+14     	; 0x1470 <conv_int+0x94>
    1462:	2f c0       	rjmp	.+94     	; 0x14c2 <conv_int+0xe6>
    1464:	b6 fe       	sbrs	r11, 6
    1466:	02 c0       	rjmp	.+4      	; 0x146c <conv_int+0x90>
    1468:	c2 60       	ori	r28, 0x02	; 2
    146a:	01 c0       	rjmp	.+2      	; 0x146e <conv_int+0x92>
    146c:	c2 61       	ori	r28, 0x12	; 18
    146e:	da 2d       	mov	r29, r10
    1470:	81 2c       	mov	r8, r1
    1472:	91 2c       	mov	r9, r1
    1474:	54 01       	movw	r10, r8
    1476:	20 ed       	ldi	r18, 0xD0	; 208
    1478:	28 0f       	add	r18, r24
    147a:	28 30       	cpi	r18, 0x08	; 8
    147c:	80 f0       	brcs	.+32     	; 0x149e <conv_int+0xc2>
    147e:	c4 ff       	sbrs	r28, 4
    1480:	04 c0       	rjmp	.+8      	; 0x148a <conv_int+0xae>
    1482:	b8 01       	movw	r22, r16
    1484:	0e 94 a1 0c 	call	0x1942	; 0x1942 <ungetc>
    1488:	19 c0       	rjmp	.+50     	; 0x14bc <conv_int+0xe0>
    148a:	2a 30       	cpi	r18, 0x0A	; 10
    148c:	40 f0       	brcs	.+16     	; 0x149e <conv_int+0xc2>
    148e:	c6 ff       	sbrs	r28, 6
    1490:	f8 cf       	rjmp	.-16     	; 0x1482 <conv_int+0xa6>
    1492:	2f 7d       	andi	r18, 0xDF	; 223
    1494:	3f ee       	ldi	r19, 0xEF	; 239
    1496:	32 0f       	add	r19, r18
    1498:	36 30       	cpi	r19, 0x06	; 6
    149a:	98 f7       	brcc	.-26     	; 0x1482 <conv_int+0xa6>
    149c:	27 50       	subi	r18, 0x07	; 7
    149e:	4c 2f       	mov	r20, r28
    14a0:	c5 01       	movw	r24, r10
    14a2:	b4 01       	movw	r22, r8
    14a4:	0e 94 ae 09 	call	0x135c	; 0x135c <mulacc>
    14a8:	4b 01       	movw	r8, r22
    14aa:	5c 01       	movw	r10, r24
    14ac:	c2 60       	ori	r28, 0x02	; 2
    14ae:	d1 50       	subi	r29, 0x01	; 1
    14b0:	59 f0       	breq	.+22     	; 0x14c8 <conv_int+0xec>
    14b2:	c8 01       	movw	r24, r16
    14b4:	0e 94 63 0c 	call	0x18c6	; 0x18c6 <fgetc>
    14b8:	97 ff       	sbrs	r25, 7
    14ba:	dd cf       	rjmp	.-70     	; 0x1476 <conv_int+0x9a>
    14bc:	c1 fd       	sbrc	r28, 1
    14be:	04 c0       	rjmp	.+8      	; 0x14c8 <conv_int+0xec>
    14c0:	aa cf       	rjmp	.-172    	; 0x1416 <conv_int+0x3a>
    14c2:	81 2c       	mov	r8, r1
    14c4:	91 2c       	mov	r9, r1
    14c6:	54 01       	movw	r10, r8
    14c8:	c7 ff       	sbrs	r28, 7
    14ca:	08 c0       	rjmp	.+16     	; 0x14dc <conv_int+0x100>
    14cc:	b0 94       	com	r11
    14ce:	a0 94       	com	r10
    14d0:	90 94       	com	r9
    14d2:	80 94       	com	r8
    14d4:	81 1c       	adc	r8, r1
    14d6:	91 1c       	adc	r9, r1
    14d8:	a1 1c       	adc	r10, r1
    14da:	b1 1c       	adc	r11, r1
    14dc:	2c 2f       	mov	r18, r28
    14de:	b5 01       	movw	r22, r10
    14e0:	a4 01       	movw	r20, r8
    14e2:	c7 01       	movw	r24, r14
    14e4:	0e 94 a2 09 	call	0x1344	; 0x1344 <putval>
    14e8:	81 e0       	ldi	r24, 0x01	; 1
    14ea:	df 91       	pop	r29
    14ec:	cf 91       	pop	r28
    14ee:	1f 91       	pop	r17
    14f0:	0f 91       	pop	r16
    14f2:	ff 90       	pop	r15
    14f4:	ef 90       	pop	r14
    14f6:	bf 90       	pop	r11
    14f8:	af 90       	pop	r10
    14fa:	9f 90       	pop	r9
    14fc:	8f 90       	pop	r8
    14fe:	08 95       	ret

00001500 <conv_brk>:
    1500:	a0 e2       	ldi	r26, 0x20	; 32
    1502:	b0 e0       	ldi	r27, 0x00	; 0
    1504:	e6 e8       	ldi	r30, 0x86	; 134
    1506:	fa e0       	ldi	r31, 0x0A	; 10
    1508:	0c 94 ab 07 	jmp	0xf56	; 0xf56 <__prologue_saves__+0x6>
    150c:	5c 01       	movw	r10, r24
    150e:	96 2e       	mov	r9, r22
    1510:	7a 01       	movw	r14, r20
    1512:	f9 01       	movw	r30, r18
    1514:	8e 01       	movw	r16, r28
    1516:	0f 5f       	subi	r16, 0xFF	; 255
    1518:	1f 4f       	sbci	r17, 0xFF	; 255
    151a:	68 01       	movw	r12, r16
    151c:	80 e2       	ldi	r24, 0x20	; 32
    151e:	d8 01       	movw	r26, r16
    1520:	1d 92       	st	X+, r1
    1522:	8a 95       	dec	r24
    1524:	e9 f7       	brne	.-6      	; 0x1520 <conv_brk+0x20>
    1526:	d5 01       	movw	r26, r10
    1528:	13 96       	adiw	r26, 0x03	; 3
    152a:	8c 90       	ld	r8, X
    152c:	80 e0       	ldi	r24, 0x00	; 0
    152e:	90 e0       	ldi	r25, 0x00	; 0
    1530:	61 2c       	mov	r6, r1
    1532:	71 2c       	mov	r7, r1
    1534:	30 e0       	ldi	r19, 0x00	; 0
    1536:	61 e0       	ldi	r22, 0x01	; 1
    1538:	70 e0       	ldi	r23, 0x00	; 0
    153a:	83 fc       	sbrc	r8, 3
    153c:	25 91       	lpm	r18, Z+
    153e:	83 fe       	sbrs	r8, 3
    1540:	21 91       	ld	r18, Z+
    1542:	8f 01       	movw	r16, r30
    1544:	52 2e       	mov	r5, r18
    1546:	21 11       	cpse	r18, r1
    1548:	03 c0       	rjmp	.+6      	; 0x1550 <conv_brk+0x50>
    154a:	80 e0       	ldi	r24, 0x00	; 0
    154c:	90 e0       	ldi	r25, 0x00	; 0
    154e:	92 c0       	rjmp	.+292    	; 0x1674 <conv_brk+0x174>
    1550:	2e 35       	cpi	r18, 0x5E	; 94
    1552:	11 f4       	brne	.+4      	; 0x1558 <conv_brk+0x58>
    1554:	00 97       	sbiw	r24, 0x00	; 0
    1556:	51 f1       	breq	.+84     	; 0x15ac <conv_brk+0xac>
    1558:	43 2f       	mov	r20, r19
    155a:	50 e0       	ldi	r21, 0x00	; 0
    155c:	48 17       	cp	r20, r24
    155e:	59 07       	cpc	r21, r25
    1560:	3c f4       	brge	.+14     	; 0x1570 <conv_brk+0x70>
    1562:	2d 35       	cpi	r18, 0x5D	; 93
    1564:	59 f1       	breq	.+86     	; 0x15bc <conv_brk+0xbc>
    1566:	2d 32       	cpi	r18, 0x2D	; 45
    1568:	19 f4       	brne	.+6      	; 0x1570 <conv_brk+0x70>
    156a:	77 20       	and	r7, r7
    156c:	09 f1       	breq	.+66     	; 0x15b0 <conv_brk+0xb0>
    156e:	03 c0       	rjmp	.+6      	; 0x1576 <conv_brk+0x76>
    1570:	77 20       	and	r7, r7
    1572:	09 f4       	brne	.+2      	; 0x1576 <conv_brk+0x76>
    1574:	6a c0       	rjmp	.+212    	; 0x164a <conv_brk+0x14a>
    1576:	45 2d       	mov	r20, r5
    1578:	46 95       	lsr	r20
    157a:	46 95       	lsr	r20
    157c:	46 95       	lsr	r20
    157e:	d6 01       	movw	r26, r12
    1580:	a4 0f       	add	r26, r20
    1582:	b1 1d       	adc	r27, r1
    1584:	45 2d       	mov	r20, r5
    1586:	47 70       	andi	r20, 0x07	; 7
    1588:	8b 01       	movw	r16, r22
    158a:	02 c0       	rjmp	.+4      	; 0x1590 <conv_brk+0x90>
    158c:	00 0f       	add	r16, r16
    158e:	11 1f       	adc	r17, r17
    1590:	4a 95       	dec	r20
    1592:	e2 f7       	brpl	.-8      	; 0x158c <conv_brk+0x8c>
    1594:	a8 01       	movw	r20, r16
    1596:	5c 91       	ld	r21, X
    1598:	45 2b       	or	r20, r21
    159a:	4c 93       	st	X, r20
    159c:	65 14       	cp	r6, r5
    159e:	59 f0       	breq	.+22     	; 0x15b6 <conv_brk+0xb6>
    15a0:	56 14       	cp	r5, r6
    15a2:	10 f4       	brcc	.+4      	; 0x15a8 <conv_brk+0xa8>
    15a4:	53 94       	inc	r5
    15a6:	e7 cf       	rjmp	.-50     	; 0x1576 <conv_brk+0x76>
    15a8:	5a 94       	dec	r5
    15aa:	e5 cf       	rjmp	.-54     	; 0x1576 <conv_brk+0x76>
    15ac:	31 e0       	ldi	r19, 0x01	; 1
    15ae:	04 c0       	rjmp	.+8      	; 0x15b8 <conv_brk+0xb8>
    15b0:	77 24       	eor	r7, r7
    15b2:	73 94       	inc	r7
    15b4:	01 c0       	rjmp	.+2      	; 0x15b8 <conv_brk+0xb8>
    15b6:	71 2c       	mov	r7, r1
    15b8:	01 96       	adiw	r24, 0x01	; 1
    15ba:	bf cf       	rjmp	.-130    	; 0x153a <conv_brk+0x3a>
    15bc:	77 20       	and	r7, r7
    15be:	19 f0       	breq	.+6      	; 0x15c6 <conv_brk+0xc6>
    15c0:	8e 81       	ldd	r24, Y+6	; 0x06
    15c2:	80 62       	ori	r24, 0x20	; 32
    15c4:	8e 83       	std	Y+6, r24	; 0x06
    15c6:	31 11       	cpse	r19, r1
    15c8:	03 c0       	rjmp	.+6      	; 0x15d0 <conv_brk+0xd0>
    15ca:	88 24       	eor	r8, r8
    15cc:	83 94       	inc	r8
    15ce:	17 c0       	rjmp	.+46     	; 0x15fe <conv_brk+0xfe>
    15d0:	f6 01       	movw	r30, r12
    15d2:	9e 01       	movw	r18, r28
    15d4:	2f 5d       	subi	r18, 0xDF	; 223
    15d6:	3f 4f       	sbci	r19, 0xFF	; 255
    15d8:	80 81       	ld	r24, Z
    15da:	80 95       	com	r24
    15dc:	81 93       	st	Z+, r24
    15de:	2e 17       	cp	r18, r30
    15e0:	3f 07       	cpc	r19, r31
    15e2:	d1 f7       	brne	.-12     	; 0x15d8 <conv_brk+0xd8>
    15e4:	f2 cf       	rjmp	.-28     	; 0x15ca <conv_brk+0xca>
    15e6:	e1 14       	cp	r14, r1
    15e8:	f1 04       	cpc	r15, r1
    15ea:	29 f0       	breq	.+10     	; 0x15f6 <conv_brk+0xf6>
    15ec:	d7 01       	movw	r26, r14
    15ee:	8c 93       	st	X, r24
    15f0:	f7 01       	movw	r30, r14
    15f2:	31 96       	adiw	r30, 0x01	; 1
    15f4:	7f 01       	movw	r14, r30
    15f6:	9a 94       	dec	r9
    15f8:	81 2c       	mov	r8, r1
    15fa:	99 20       	and	r9, r9
    15fc:	f9 f0       	breq	.+62     	; 0x163c <conv_brk+0x13c>
    15fe:	c5 01       	movw	r24, r10
    1600:	0e 94 63 0c 	call	0x18c6	; 0x18c6 <fgetc>
    1604:	97 fd       	sbrc	r25, 7
    1606:	18 c0       	rjmp	.+48     	; 0x1638 <conv_brk+0x138>
    1608:	fc 01       	movw	r30, r24
    160a:	ff 27       	eor	r31, r31
    160c:	23 e0       	ldi	r18, 0x03	; 3
    160e:	f5 95       	asr	r31
    1610:	e7 95       	ror	r30
    1612:	2a 95       	dec	r18
    1614:	e1 f7       	brne	.-8      	; 0x160e <conv_brk+0x10e>
    1616:	ec 0d       	add	r30, r12
    1618:	fd 1d       	adc	r31, r13
    161a:	20 81       	ld	r18, Z
    161c:	30 e0       	ldi	r19, 0x00	; 0
    161e:	ac 01       	movw	r20, r24
    1620:	47 70       	andi	r20, 0x07	; 7
    1622:	55 27       	eor	r21, r21
    1624:	02 c0       	rjmp	.+4      	; 0x162a <conv_brk+0x12a>
    1626:	35 95       	asr	r19
    1628:	27 95       	ror	r18
    162a:	4a 95       	dec	r20
    162c:	e2 f7       	brpl	.-8      	; 0x1626 <conv_brk+0x126>
    162e:	20 fd       	sbrc	r18, 0
    1630:	da cf       	rjmp	.-76     	; 0x15e6 <conv_brk+0xe6>
    1632:	b5 01       	movw	r22, r10
    1634:	0e 94 a1 0c 	call	0x1942	; 0x1942 <ungetc>
    1638:	81 10       	cpse	r8, r1
    163a:	87 cf       	rjmp	.-242    	; 0x154a <conv_brk+0x4a>
    163c:	e1 14       	cp	r14, r1
    163e:	f1 04       	cpc	r15, r1
    1640:	11 f0       	breq	.+4      	; 0x1646 <conv_brk+0x146>
    1642:	d7 01       	movw	r26, r14
    1644:	1c 92       	st	X, r1
    1646:	c8 01       	movw	r24, r16
    1648:	15 c0       	rjmp	.+42     	; 0x1674 <conv_brk+0x174>
    164a:	42 2f       	mov	r20, r18
    164c:	46 95       	lsr	r20
    164e:	46 95       	lsr	r20
    1650:	46 95       	lsr	r20
    1652:	d6 01       	movw	r26, r12
    1654:	a4 0f       	add	r26, r20
    1656:	b1 1d       	adc	r27, r1
    1658:	42 2f       	mov	r20, r18
    165a:	47 70       	andi	r20, 0x07	; 7
    165c:	8b 01       	movw	r16, r22
    165e:	02 c0       	rjmp	.+4      	; 0x1664 <conv_brk+0x164>
    1660:	00 0f       	add	r16, r16
    1662:	11 1f       	adc	r17, r17
    1664:	4a 95       	dec	r20
    1666:	e2 f7       	brpl	.-8      	; 0x1660 <conv_brk+0x160>
    1668:	a8 01       	movw	r20, r16
    166a:	5c 91       	ld	r21, X
    166c:	45 2b       	or	r20, r21
    166e:	4c 93       	st	X, r20
    1670:	62 2e       	mov	r6, r18
    1672:	a2 cf       	rjmp	.-188    	; 0x15b8 <conv_brk+0xb8>
    1674:	a0 96       	adiw	r28, 0x20	; 32
    1676:	ef e0       	ldi	r30, 0x0F	; 15
    1678:	0c 94 c7 07 	jmp	0xf8e	; 0xf8e <__epilogue_restores__+0x6>

0000167c <vfscanf>:
    167c:	a0 e0       	ldi	r26, 0x00	; 0
    167e:	b0 e0       	ldi	r27, 0x00	; 0
    1680:	e4 e4       	ldi	r30, 0x44	; 68
    1682:	fb e0       	ldi	r31, 0x0B	; 11
    1684:	0c 94 ab 07 	jmp	0xf56	; 0xf56 <__prologue_saves__+0x6>
    1688:	6c 01       	movw	r12, r24
    168a:	eb 01       	movw	r28, r22
    168c:	5a 01       	movw	r10, r20
    168e:	fc 01       	movw	r30, r24
    1690:	17 82       	std	Z+7, r1	; 0x07
    1692:	16 82       	std	Z+6, r1	; 0x06
    1694:	51 2c       	mov	r5, r1
    1696:	f6 01       	movw	r30, r12
    1698:	e3 80       	ldd	r14, Z+3	; 0x03
    169a:	fe 01       	movw	r30, r28
    169c:	e3 fc       	sbrc	r14, 3
    169e:	85 91       	lpm	r24, Z+
    16a0:	e3 fe       	sbrs	r14, 3
    16a2:	81 91       	ld	r24, Z+
    16a4:	18 2f       	mov	r17, r24
    16a6:	ef 01       	movw	r28, r30
    16a8:	88 23       	and	r24, r24
    16aa:	09 f4       	brne	.+2      	; 0x16ae <vfscanf+0x32>
    16ac:	ee c0       	rjmp	.+476    	; 0x188a <vfscanf+0x20e>
    16ae:	90 e0       	ldi	r25, 0x00	; 0
    16b0:	0e 94 4f 0c 	call	0x189e	; 0x189e <isspace>
    16b4:	89 2b       	or	r24, r25
    16b6:	21 f0       	breq	.+8      	; 0x16c0 <vfscanf+0x44>
    16b8:	c6 01       	movw	r24, r12
    16ba:	0e 94 d5 09 	call	0x13aa	; 0x13aa <skip_spaces>
    16be:	eb cf       	rjmp	.-42     	; 0x1696 <vfscanf+0x1a>
    16c0:	15 32       	cpi	r17, 0x25	; 37
    16c2:	41 f4       	brne	.+16     	; 0x16d4 <vfscanf+0x58>
    16c4:	fe 01       	movw	r30, r28
    16c6:	e3 fc       	sbrc	r14, 3
    16c8:	15 91       	lpm	r17, Z+
    16ca:	e3 fe       	sbrs	r14, 3
    16cc:	11 91       	ld	r17, Z+
    16ce:	ef 01       	movw	r28, r30
    16d0:	15 32       	cpi	r17, 0x25	; 37
    16d2:	81 f4       	brne	.+32     	; 0x16f4 <vfscanf+0x78>
    16d4:	c6 01       	movw	r24, r12
    16d6:	0e 94 63 0c 	call	0x18c6	; 0x18c6 <fgetc>
    16da:	97 fd       	sbrc	r25, 7
    16dc:	d4 c0       	rjmp	.+424    	; 0x1886 <vfscanf+0x20a>
    16de:	41 2f       	mov	r20, r17
    16e0:	50 e0       	ldi	r21, 0x00	; 0
    16e2:	9c 01       	movw	r18, r24
    16e4:	33 27       	eor	r19, r19
    16e6:	24 17       	cp	r18, r20
    16e8:	35 07       	cpc	r19, r21
    16ea:	a9 f2       	breq	.-86     	; 0x1696 <vfscanf+0x1a>
    16ec:	b6 01       	movw	r22, r12
    16ee:	0e 94 a1 0c 	call	0x1942	; 0x1942 <ungetc>
    16f2:	cb c0       	rjmp	.+406    	; 0x188a <vfscanf+0x20e>
    16f4:	1a 32       	cpi	r17, 0x2A	; 42
    16f6:	39 f4       	brne	.+14     	; 0x1706 <vfscanf+0x8a>
    16f8:	e3 fc       	sbrc	r14, 3
    16fa:	15 91       	lpm	r17, Z+
    16fc:	e3 fe       	sbrs	r14, 3
    16fe:	11 91       	ld	r17, Z+
    1700:	ef 01       	movw	r28, r30
    1702:	01 e0       	ldi	r16, 0x01	; 1
    1704:	01 c0       	rjmp	.+2      	; 0x1708 <vfscanf+0x8c>
    1706:	00 e0       	ldi	r16, 0x00	; 0
    1708:	f1 2c       	mov	r15, r1
    170a:	20 ed       	ldi	r18, 0xD0	; 208
    170c:	21 0f       	add	r18, r17
    170e:	2a 30       	cpi	r18, 0x0A	; 10
    1710:	80 f4       	brcc	.+32     	; 0x1732 <vfscanf+0xb6>
    1712:	02 60       	ori	r16, 0x02	; 2
    1714:	6f 2d       	mov	r22, r15
    1716:	70 e0       	ldi	r23, 0x00	; 0
    1718:	80 e0       	ldi	r24, 0x00	; 0
    171a:	90 e0       	ldi	r25, 0x00	; 0
    171c:	40 e2       	ldi	r20, 0x20	; 32
    171e:	0e 94 ae 09 	call	0x135c	; 0x135c <mulacc>
    1722:	f6 2e       	mov	r15, r22
    1724:	fe 01       	movw	r30, r28
    1726:	e3 fc       	sbrc	r14, 3
    1728:	15 91       	lpm	r17, Z+
    172a:	e3 fe       	sbrs	r14, 3
    172c:	11 91       	ld	r17, Z+
    172e:	ef 01       	movw	r28, r30
    1730:	ec cf       	rjmp	.-40     	; 0x170a <vfscanf+0x8e>
    1732:	01 ff       	sbrs	r16, 1
    1734:	03 c0       	rjmp	.+6      	; 0x173c <vfscanf+0xc0>
    1736:	f1 10       	cpse	r15, r1
    1738:	03 c0       	rjmp	.+6      	; 0x1740 <vfscanf+0xc4>
    173a:	a7 c0       	rjmp	.+334    	; 0x188a <vfscanf+0x20e>
    173c:	ff 24       	eor	r15, r15
    173e:	fa 94       	dec	r15
    1740:	18 36       	cpi	r17, 0x68	; 104
    1742:	19 f0       	breq	.+6      	; 0x174a <vfscanf+0xce>
    1744:	1c 36       	cpi	r17, 0x6C	; 108
    1746:	51 f0       	breq	.+20     	; 0x175c <vfscanf+0xe0>
    1748:	10 c0       	rjmp	.+32     	; 0x176a <vfscanf+0xee>
    174a:	fe 01       	movw	r30, r28
    174c:	e3 fc       	sbrc	r14, 3
    174e:	15 91       	lpm	r17, Z+
    1750:	e3 fe       	sbrs	r14, 3
    1752:	11 91       	ld	r17, Z+
    1754:	ef 01       	movw	r28, r30
    1756:	18 36       	cpi	r17, 0x68	; 104
    1758:	41 f4       	brne	.+16     	; 0x176a <vfscanf+0xee>
    175a:	08 60       	ori	r16, 0x08	; 8
    175c:	04 60       	ori	r16, 0x04	; 4
    175e:	fe 01       	movw	r30, r28
    1760:	e3 fc       	sbrc	r14, 3
    1762:	15 91       	lpm	r17, Z+
    1764:	e3 fe       	sbrs	r14, 3
    1766:	11 91       	ld	r17, Z+
    1768:	ef 01       	movw	r28, r30
    176a:	11 23       	and	r17, r17
    176c:	09 f4       	brne	.+2      	; 0x1770 <vfscanf+0xf4>
    176e:	8d c0       	rjmp	.+282    	; 0x188a <vfscanf+0x20e>
    1770:	61 2f       	mov	r22, r17
    1772:	70 e0       	ldi	r23, 0x00	; 0
    1774:	86 e5       	ldi	r24, 0x56	; 86
    1776:	91 e0       	ldi	r25, 0x01	; 1
    1778:	0e 94 58 0c 	call	0x18b0	; 0x18b0 <strchr_P>
    177c:	89 2b       	or	r24, r25
    177e:	09 f4       	brne	.+2      	; 0x1782 <vfscanf+0x106>
    1780:	84 c0       	rjmp	.+264    	; 0x188a <vfscanf+0x20e>
    1782:	00 fd       	sbrc	r16, 0
    1784:	07 c0       	rjmp	.+14     	; 0x1794 <vfscanf+0x118>
    1786:	f5 01       	movw	r30, r10
    1788:	80 80       	ld	r8, Z
    178a:	91 80       	ldd	r9, Z+1	; 0x01
    178c:	c5 01       	movw	r24, r10
    178e:	02 96       	adiw	r24, 0x02	; 2
    1790:	5c 01       	movw	r10, r24
    1792:	02 c0       	rjmp	.+4      	; 0x1798 <vfscanf+0x11c>
    1794:	81 2c       	mov	r8, r1
    1796:	91 2c       	mov	r9, r1
    1798:	1e 36       	cpi	r17, 0x6E	; 110
    179a:	51 f4       	brne	.+20     	; 0x17b0 <vfscanf+0x134>
    179c:	f6 01       	movw	r30, r12
    179e:	46 81       	ldd	r20, Z+6	; 0x06
    17a0:	57 81       	ldd	r21, Z+7	; 0x07
    17a2:	60 e0       	ldi	r22, 0x00	; 0
    17a4:	70 e0       	ldi	r23, 0x00	; 0
    17a6:	20 2f       	mov	r18, r16
    17a8:	c4 01       	movw	r24, r8
    17aa:	0e 94 a2 09 	call	0x1344	; 0x1344 <putval>
    17ae:	73 cf       	rjmp	.-282    	; 0x1696 <vfscanf+0x1a>
    17b0:	13 36       	cpi	r17, 0x63	; 99
    17b2:	a9 f4       	brne	.+42     	; 0x17de <vfscanf+0x162>
    17b4:	01 fd       	sbrc	r16, 1
    17b6:	02 c0       	rjmp	.+4      	; 0x17bc <vfscanf+0x140>
    17b8:	ff 24       	eor	r15, r15
    17ba:	f3 94       	inc	r15
    17bc:	c6 01       	movw	r24, r12
    17be:	0e 94 63 0c 	call	0x18c6	; 0x18c6 <fgetc>
    17c2:	97 fd       	sbrc	r25, 7
    17c4:	60 c0       	rjmp	.+192    	; 0x1886 <vfscanf+0x20a>
    17c6:	81 14       	cp	r8, r1
    17c8:	91 04       	cpc	r9, r1
    17ca:	29 f0       	breq	.+10     	; 0x17d6 <vfscanf+0x15a>
    17cc:	f4 01       	movw	r30, r8
    17ce:	80 83       	st	Z, r24
    17d0:	c4 01       	movw	r24, r8
    17d2:	01 96       	adiw	r24, 0x01	; 1
    17d4:	4c 01       	movw	r8, r24
    17d6:	fa 94       	dec	r15
    17d8:	f1 10       	cpse	r15, r1
    17da:	f0 cf       	rjmp	.-32     	; 0x17bc <vfscanf+0x140>
    17dc:	50 c0       	rjmp	.+160    	; 0x187e <vfscanf+0x202>
    17de:	1b 35       	cpi	r17, 0x5B	; 91
    17e0:	59 f4       	brne	.+22     	; 0x17f8 <vfscanf+0x17c>
    17e2:	9e 01       	movw	r18, r28
    17e4:	a4 01       	movw	r20, r8
    17e6:	6f 2d       	mov	r22, r15
    17e8:	c6 01       	movw	r24, r12
    17ea:	0e 94 80 0a 	call	0x1500	; 0x1500 <conv_brk>
    17ee:	ec 01       	movw	r28, r24
    17f0:	89 2b       	or	r24, r25
    17f2:	09 f0       	breq	.+2      	; 0x17f6 <vfscanf+0x17a>
    17f4:	44 c0       	rjmp	.+136    	; 0x187e <vfscanf+0x202>
    17f6:	3e c0       	rjmp	.+124    	; 0x1874 <vfscanf+0x1f8>
    17f8:	c6 01       	movw	r24, r12
    17fa:	0e 94 d5 09 	call	0x13aa	; 0x13aa <skip_spaces>
    17fe:	97 fd       	sbrc	r25, 7
    1800:	42 c0       	rjmp	.+132    	; 0x1886 <vfscanf+0x20a>
    1802:	1f 36       	cpi	r17, 0x6F	; 111
    1804:	61 f1       	breq	.+88     	; 0x185e <vfscanf+0x1e2>
    1806:	28 f4       	brcc	.+10     	; 0x1812 <vfscanf+0x196>
    1808:	14 36       	cpi	r17, 0x64	; 100
    180a:	39 f1       	breq	.+78     	; 0x185a <vfscanf+0x1de>
    180c:	19 36       	cpi	r17, 0x69	; 105
    180e:	51 f1       	breq	.+84     	; 0x1864 <vfscanf+0x1e8>
    1810:	28 c0       	rjmp	.+80     	; 0x1862 <vfscanf+0x1e6>
    1812:	13 37       	cpi	r17, 0x73	; 115
    1814:	71 f0       	breq	.+28     	; 0x1832 <vfscanf+0x1b6>
    1816:	15 37       	cpi	r17, 0x75	; 117
    1818:	01 f1       	breq	.+64     	; 0x185a <vfscanf+0x1de>
    181a:	23 c0       	rjmp	.+70     	; 0x1862 <vfscanf+0x1e6>
    181c:	81 14       	cp	r8, r1
    181e:	91 04       	cpc	r9, r1
    1820:	29 f0       	breq	.+10     	; 0x182c <vfscanf+0x1b0>
    1822:	f4 01       	movw	r30, r8
    1824:	60 82       	st	Z, r6
    1826:	c4 01       	movw	r24, r8
    1828:	01 96       	adiw	r24, 0x01	; 1
    182a:	4c 01       	movw	r8, r24
    182c:	fa 94       	dec	r15
    182e:	ff 20       	and	r15, r15
    1830:	71 f0       	breq	.+28     	; 0x184e <vfscanf+0x1d2>
    1832:	c6 01       	movw	r24, r12
    1834:	0e 94 63 0c 	call	0x18c6	; 0x18c6 <fgetc>
    1838:	3c 01       	movw	r6, r24
    183a:	97 fd       	sbrc	r25, 7
    183c:	08 c0       	rjmp	.+16     	; 0x184e <vfscanf+0x1d2>
    183e:	0e 94 4f 0c 	call	0x189e	; 0x189e <isspace>
    1842:	89 2b       	or	r24, r25
    1844:	59 f3       	breq	.-42     	; 0x181c <vfscanf+0x1a0>
    1846:	b6 01       	movw	r22, r12
    1848:	c3 01       	movw	r24, r6
    184a:	0e 94 a1 0c 	call	0x1942	; 0x1942 <ungetc>
    184e:	81 14       	cp	r8, r1
    1850:	91 04       	cpc	r9, r1
    1852:	a9 f0       	breq	.+42     	; 0x187e <vfscanf+0x202>
    1854:	f4 01       	movw	r30, r8
    1856:	10 82       	st	Z, r1
    1858:	12 c0       	rjmp	.+36     	; 0x187e <vfscanf+0x202>
    185a:	00 62       	ori	r16, 0x20	; 32
    185c:	03 c0       	rjmp	.+6      	; 0x1864 <vfscanf+0x1e8>
    185e:	00 61       	ori	r16, 0x10	; 16
    1860:	01 c0       	rjmp	.+2      	; 0x1864 <vfscanf+0x1e8>
    1862:	00 64       	ori	r16, 0x40	; 64
    1864:	20 2f       	mov	r18, r16
    1866:	a4 01       	movw	r20, r8
    1868:	6f 2d       	mov	r22, r15
    186a:	c6 01       	movw	r24, r12
    186c:	0e 94 ee 09 	call	0x13dc	; 0x13dc <conv_int>
    1870:	81 11       	cpse	r24, r1
    1872:	05 c0       	rjmp	.+10     	; 0x187e <vfscanf+0x202>
    1874:	f6 01       	movw	r30, r12
    1876:	83 81       	ldd	r24, Z+3	; 0x03
    1878:	80 73       	andi	r24, 0x30	; 48
    187a:	29 f4       	brne	.+10     	; 0x1886 <vfscanf+0x20a>
    187c:	06 c0       	rjmp	.+12     	; 0x188a <vfscanf+0x20e>
    187e:	00 fd       	sbrc	r16, 0
    1880:	0a cf       	rjmp	.-492    	; 0x1696 <vfscanf+0x1a>
    1882:	53 94       	inc	r5
    1884:	08 cf       	rjmp	.-496    	; 0x1696 <vfscanf+0x1a>
    1886:	55 20       	and	r5, r5
    1888:	19 f0       	breq	.+6      	; 0x1890 <vfscanf+0x214>
    188a:	85 2d       	mov	r24, r5
    188c:	90 e0       	ldi	r25, 0x00	; 0
    188e:	02 c0       	rjmp	.+4      	; 0x1894 <vfscanf+0x218>
    1890:	8f ef       	ldi	r24, 0xFF	; 255
    1892:	9f ef       	ldi	r25, 0xFF	; 255
    1894:	cd b7       	in	r28, 0x3d	; 61
    1896:	de b7       	in	r29, 0x3e	; 62
    1898:	ef e0       	ldi	r30, 0x0F	; 15
    189a:	0c 94 c7 07 	jmp	0xf8e	; 0xf8e <__epilogue_restores__+0x6>

0000189e <isspace>:
    189e:	91 11       	cpse	r25, r1
    18a0:	0c 94 ba 0c 	jmp	0x1974	; 0x1974 <__ctype_isfalse>
    18a4:	80 32       	cpi	r24, 0x20	; 32
    18a6:	19 f0       	breq	.+6      	; 0x18ae <isspace+0x10>
    18a8:	89 50       	subi	r24, 0x09	; 9
    18aa:	85 50       	subi	r24, 0x05	; 5
    18ac:	c8 f7       	brcc	.-14     	; 0x18a0 <isspace+0x2>
    18ae:	08 95       	ret

000018b0 <strchr_P>:
    18b0:	fc 01       	movw	r30, r24
    18b2:	05 90       	lpm	r0, Z+
    18b4:	06 16       	cp	r0, r22
    18b6:	21 f0       	breq	.+8      	; 0x18c0 <strchr_P+0x10>
    18b8:	00 20       	and	r0, r0
    18ba:	d9 f7       	brne	.-10     	; 0x18b2 <strchr_P+0x2>
    18bc:	c0 01       	movw	r24, r0
    18be:	08 95       	ret
    18c0:	31 97       	sbiw	r30, 0x01	; 1
    18c2:	cf 01       	movw	r24, r30
    18c4:	08 95       	ret

000018c6 <fgetc>:
    18c6:	cf 93       	push	r28
    18c8:	df 93       	push	r29
    18ca:	ec 01       	movw	r28, r24
    18cc:	2b 81       	ldd	r18, Y+3	; 0x03
    18ce:	20 ff       	sbrs	r18, 0
    18d0:	33 c0       	rjmp	.+102    	; 0x1938 <fgetc+0x72>
    18d2:	26 ff       	sbrs	r18, 6
    18d4:	0a c0       	rjmp	.+20     	; 0x18ea <fgetc+0x24>
    18d6:	2f 7b       	andi	r18, 0xBF	; 191
    18d8:	2b 83       	std	Y+3, r18	; 0x03
    18da:	8e 81       	ldd	r24, Y+6	; 0x06
    18dc:	9f 81       	ldd	r25, Y+7	; 0x07
    18de:	01 96       	adiw	r24, 0x01	; 1
    18e0:	9f 83       	std	Y+7, r25	; 0x07
    18e2:	8e 83       	std	Y+6, r24	; 0x06
    18e4:	8a 81       	ldd	r24, Y+2	; 0x02
    18e6:	90 e0       	ldi	r25, 0x00	; 0
    18e8:	29 c0       	rjmp	.+82     	; 0x193c <fgetc+0x76>
    18ea:	22 ff       	sbrs	r18, 2
    18ec:	0f c0       	rjmp	.+30     	; 0x190c <fgetc+0x46>
    18ee:	e8 81       	ld	r30, Y
    18f0:	f9 81       	ldd	r31, Y+1	; 0x01
    18f2:	80 81       	ld	r24, Z
    18f4:	08 2e       	mov	r0, r24
    18f6:	00 0c       	add	r0, r0
    18f8:	99 0b       	sbc	r25, r25
    18fa:	00 97       	sbiw	r24, 0x00	; 0
    18fc:	19 f4       	brne	.+6      	; 0x1904 <fgetc+0x3e>
    18fe:	20 62       	ori	r18, 0x20	; 32
    1900:	2b 83       	std	Y+3, r18	; 0x03
    1902:	1a c0       	rjmp	.+52     	; 0x1938 <fgetc+0x72>
    1904:	31 96       	adiw	r30, 0x01	; 1
    1906:	f9 83       	std	Y+1, r31	; 0x01
    1908:	e8 83       	st	Y, r30
    190a:	0e c0       	rjmp	.+28     	; 0x1928 <fgetc+0x62>
    190c:	ea 85       	ldd	r30, Y+10	; 0x0a
    190e:	fb 85       	ldd	r31, Y+11	; 0x0b
    1910:	09 95       	icall
    1912:	97 ff       	sbrs	r25, 7
    1914:	09 c0       	rjmp	.+18     	; 0x1928 <fgetc+0x62>
    1916:	2b 81       	ldd	r18, Y+3	; 0x03
    1918:	01 96       	adiw	r24, 0x01	; 1
    191a:	11 f0       	breq	.+4      	; 0x1920 <fgetc+0x5a>
    191c:	80 e2       	ldi	r24, 0x20	; 32
    191e:	01 c0       	rjmp	.+2      	; 0x1922 <fgetc+0x5c>
    1920:	80 e1       	ldi	r24, 0x10	; 16
    1922:	82 2b       	or	r24, r18
    1924:	8b 83       	std	Y+3, r24	; 0x03
    1926:	08 c0       	rjmp	.+16     	; 0x1938 <fgetc+0x72>
    1928:	2e 81       	ldd	r18, Y+6	; 0x06
    192a:	3f 81       	ldd	r19, Y+7	; 0x07
    192c:	2f 5f       	subi	r18, 0xFF	; 255
    192e:	3f 4f       	sbci	r19, 0xFF	; 255
    1930:	3f 83       	std	Y+7, r19	; 0x07
    1932:	2e 83       	std	Y+6, r18	; 0x06
    1934:	99 27       	eor	r25, r25
    1936:	02 c0       	rjmp	.+4      	; 0x193c <fgetc+0x76>
    1938:	8f ef       	ldi	r24, 0xFF	; 255
    193a:	9f ef       	ldi	r25, 0xFF	; 255
    193c:	df 91       	pop	r29
    193e:	cf 91       	pop	r28
    1940:	08 95       	ret

00001942 <ungetc>:
    1942:	fb 01       	movw	r30, r22
    1944:	23 81       	ldd	r18, Z+3	; 0x03
    1946:	20 ff       	sbrs	r18, 0
    1948:	12 c0       	rjmp	.+36     	; 0x196e <ungetc+0x2c>
    194a:	26 fd       	sbrc	r18, 6
    194c:	10 c0       	rjmp	.+32     	; 0x196e <ungetc+0x2c>
    194e:	8f 3f       	cpi	r24, 0xFF	; 255
    1950:	3f ef       	ldi	r19, 0xFF	; 255
    1952:	93 07       	cpc	r25, r19
    1954:	61 f0       	breq	.+24     	; 0x196e <ungetc+0x2c>
    1956:	82 83       	std	Z+2, r24	; 0x02
    1958:	2f 7d       	andi	r18, 0xDF	; 223
    195a:	20 64       	ori	r18, 0x40	; 64
    195c:	23 83       	std	Z+3, r18	; 0x03
    195e:	26 81       	ldd	r18, Z+6	; 0x06
    1960:	37 81       	ldd	r19, Z+7	; 0x07
    1962:	21 50       	subi	r18, 0x01	; 1
    1964:	31 09       	sbc	r19, r1
    1966:	37 83       	std	Z+7, r19	; 0x07
    1968:	26 83       	std	Z+6, r18	; 0x06
    196a:	99 27       	eor	r25, r25
    196c:	08 95       	ret
    196e:	8f ef       	ldi	r24, 0xFF	; 255
    1970:	9f ef       	ldi	r25, 0xFF	; 255
    1972:	08 95       	ret

00001974 <__ctype_isfalse>:
    1974:	99 27       	eor	r25, r25
    1976:	88 27       	eor	r24, r24

00001978 <__ctype_istrue>:
    1978:	08 95       	ret

0000197a <eeprom_read_word>:
    197a:	a8 e1       	ldi	r26, 0x18	; 24
    197c:	b0 e0       	ldi	r27, 0x00	; 0
    197e:	42 e0       	ldi	r20, 0x02	; 2
    1980:	50 e0       	ldi	r21, 0x00	; 0
    1982:	0c 94 c5 0c 	jmp	0x198a	; 0x198a <eeprom_read_blraw>

00001986 <eeprom_read_block>:
    1986:	dc 01       	movw	r26, r24
    1988:	cb 01       	movw	r24, r22

0000198a <eeprom_read_blraw>:
    198a:	fc 01       	movw	r30, r24
    198c:	e1 99       	sbic	0x1c, 1	; 28
    198e:	fe cf       	rjmp	.-4      	; 0x198c <eeprom_read_blraw+0x2>
    1990:	06 c0       	rjmp	.+12     	; 0x199e <eeprom_read_blraw+0x14>
    1992:	ff bb       	out	0x1f, r31	; 31
    1994:	ee bb       	out	0x1e, r30	; 30
    1996:	e0 9a       	sbi	0x1c, 0	; 28
    1998:	31 96       	adiw	r30, 0x01	; 1
    199a:	0d b2       	in	r0, 0x1d	; 29
    199c:	0d 92       	st	X+, r0
    199e:	41 50       	subi	r20, 0x01	; 1
    19a0:	50 40       	sbci	r21, 0x00	; 0
    19a2:	b8 f7       	brcc	.-18     	; 0x1992 <eeprom_read_blraw+0x8>
    19a4:	08 95       	ret

000019a6 <_exit>:
    19a6:	f8 94       	cli

000019a8 <__stop_program>:
    19a8:	ff cf       	rjmp	.-2      	; 0x19a8 <__stop_program>
